
instruction_scheduler:     file format elf64-x86-64


Disassembly of section .init:

0000000000003000 <_init>:
    3000:	f3 0f 1e fa          	endbr64 
    3004:	48 83 ec 08          	sub    $0x8,%rsp
    3008:	48 8b 05 d9 0f 02 00 	mov    0x20fd9(%rip),%rax        # 23fe8 <__gmon_start__@Base>
    300f:	48 85 c0             	test   %rax,%rax
    3012:	74 02                	je     3016 <_init+0x16>
    3014:	ff d0                	call   *%rax
    3016:	48 83 c4 08          	add    $0x8,%rsp
    301a:	c3                   	ret    

Disassembly of section .plt:

0000000000003020 <.plt>:
    3020:	ff 35 9a 0d 02 00    	push   0x20d9a(%rip)        # 23dc0 <_GLOBAL_OFFSET_TABLE_+0x8>
    3026:	f2 ff 25 9b 0d 02 00 	bnd jmp *0x20d9b(%rip)        # 23dc8 <_GLOBAL_OFFSET_TABLE_+0x10>
    302d:	0f 1f 00             	nopl   (%rax)
    3030:	f3 0f 1e fa          	endbr64 
    3034:	68 00 00 00 00       	push   $0x0
    3039:	f2 e9 e1 ff ff ff    	bnd jmp 3020 <_init+0x20>
    303f:	90                   	nop
    3040:	f3 0f 1e fa          	endbr64 
    3044:	68 01 00 00 00       	push   $0x1
    3049:	f2 e9 d1 ff ff ff    	bnd jmp 3020 <_init+0x20>
    304f:	90                   	nop
    3050:	f3 0f 1e fa          	endbr64 
    3054:	68 02 00 00 00       	push   $0x2
    3059:	f2 e9 c1 ff ff ff    	bnd jmp 3020 <_init+0x20>
    305f:	90                   	nop
    3060:	f3 0f 1e fa          	endbr64 
    3064:	68 03 00 00 00       	push   $0x3
    3069:	f2 e9 b1 ff ff ff    	bnd jmp 3020 <_init+0x20>
    306f:	90                   	nop
    3070:	f3 0f 1e fa          	endbr64 
    3074:	68 04 00 00 00       	push   $0x4
    3079:	f2 e9 a1 ff ff ff    	bnd jmp 3020 <_init+0x20>
    307f:	90                   	nop
    3080:	f3 0f 1e fa          	endbr64 
    3084:	68 05 00 00 00       	push   $0x5
    3089:	f2 e9 91 ff ff ff    	bnd jmp 3020 <_init+0x20>
    308f:	90                   	nop
    3090:	f3 0f 1e fa          	endbr64 
    3094:	68 06 00 00 00       	push   $0x6
    3099:	f2 e9 81 ff ff ff    	bnd jmp 3020 <_init+0x20>
    309f:	90                   	nop
    30a0:	f3 0f 1e fa          	endbr64 
    30a4:	68 07 00 00 00       	push   $0x7
    30a9:	f2 e9 71 ff ff ff    	bnd jmp 3020 <_init+0x20>
    30af:	90                   	nop
    30b0:	f3 0f 1e fa          	endbr64 
    30b4:	68 08 00 00 00       	push   $0x8
    30b9:	f2 e9 61 ff ff ff    	bnd jmp 3020 <_init+0x20>
    30bf:	90                   	nop
    30c0:	f3 0f 1e fa          	endbr64 
    30c4:	68 09 00 00 00       	push   $0x9
    30c9:	f2 e9 51 ff ff ff    	bnd jmp 3020 <_init+0x20>
    30cf:	90                   	nop
    30d0:	f3 0f 1e fa          	endbr64 
    30d4:	68 0a 00 00 00       	push   $0xa
    30d9:	f2 e9 41 ff ff ff    	bnd jmp 3020 <_init+0x20>
    30df:	90                   	nop
    30e0:	f3 0f 1e fa          	endbr64 
    30e4:	68 0b 00 00 00       	push   $0xb
    30e9:	f2 e9 31 ff ff ff    	bnd jmp 3020 <_init+0x20>
    30ef:	90                   	nop
    30f0:	f3 0f 1e fa          	endbr64 
    30f4:	68 0c 00 00 00       	push   $0xc
    30f9:	f2 e9 21 ff ff ff    	bnd jmp 3020 <_init+0x20>
    30ff:	90                   	nop
    3100:	f3 0f 1e fa          	endbr64 
    3104:	68 0d 00 00 00       	push   $0xd
    3109:	f2 e9 11 ff ff ff    	bnd jmp 3020 <_init+0x20>
    310f:	90                   	nop
    3110:	f3 0f 1e fa          	endbr64 
    3114:	68 0e 00 00 00       	push   $0xe
    3119:	f2 e9 01 ff ff ff    	bnd jmp 3020 <_init+0x20>
    311f:	90                   	nop
    3120:	f3 0f 1e fa          	endbr64 
    3124:	68 0f 00 00 00       	push   $0xf
    3129:	f2 e9 f1 fe ff ff    	bnd jmp 3020 <_init+0x20>
    312f:	90                   	nop
    3130:	f3 0f 1e fa          	endbr64 
    3134:	68 10 00 00 00       	push   $0x10
    3139:	f2 e9 e1 fe ff ff    	bnd jmp 3020 <_init+0x20>
    313f:	90                   	nop
    3140:	f3 0f 1e fa          	endbr64 
    3144:	68 11 00 00 00       	push   $0x11
    3149:	f2 e9 d1 fe ff ff    	bnd jmp 3020 <_init+0x20>
    314f:	90                   	nop
    3150:	f3 0f 1e fa          	endbr64 
    3154:	68 12 00 00 00       	push   $0x12
    3159:	f2 e9 c1 fe ff ff    	bnd jmp 3020 <_init+0x20>
    315f:	90                   	nop
    3160:	f3 0f 1e fa          	endbr64 
    3164:	68 13 00 00 00       	push   $0x13
    3169:	f2 e9 b1 fe ff ff    	bnd jmp 3020 <_init+0x20>
    316f:	90                   	nop
    3170:	f3 0f 1e fa          	endbr64 
    3174:	68 14 00 00 00       	push   $0x14
    3179:	f2 e9 a1 fe ff ff    	bnd jmp 3020 <_init+0x20>
    317f:	90                   	nop
    3180:	f3 0f 1e fa          	endbr64 
    3184:	68 15 00 00 00       	push   $0x15
    3189:	f2 e9 91 fe ff ff    	bnd jmp 3020 <_init+0x20>
    318f:	90                   	nop
    3190:	f3 0f 1e fa          	endbr64 
    3194:	68 16 00 00 00       	push   $0x16
    3199:	f2 e9 81 fe ff ff    	bnd jmp 3020 <_init+0x20>
    319f:	90                   	nop
    31a0:	f3 0f 1e fa          	endbr64 
    31a4:	68 17 00 00 00       	push   $0x17
    31a9:	f2 e9 71 fe ff ff    	bnd jmp 3020 <_init+0x20>
    31af:	90                   	nop
    31b0:	f3 0f 1e fa          	endbr64 
    31b4:	68 18 00 00 00       	push   $0x18
    31b9:	f2 e9 61 fe ff ff    	bnd jmp 3020 <_init+0x20>
    31bf:	90                   	nop
    31c0:	f3 0f 1e fa          	endbr64 
    31c4:	68 19 00 00 00       	push   $0x19
    31c9:	f2 e9 51 fe ff ff    	bnd jmp 3020 <_init+0x20>
    31cf:	90                   	nop
    31d0:	f3 0f 1e fa          	endbr64 
    31d4:	68 1a 00 00 00       	push   $0x1a
    31d9:	f2 e9 41 fe ff ff    	bnd jmp 3020 <_init+0x20>
    31df:	90                   	nop
    31e0:	f3 0f 1e fa          	endbr64 
    31e4:	68 1b 00 00 00       	push   $0x1b
    31e9:	f2 e9 31 fe ff ff    	bnd jmp 3020 <_init+0x20>
    31ef:	90                   	nop
    31f0:	f3 0f 1e fa          	endbr64 
    31f4:	68 1c 00 00 00       	push   $0x1c
    31f9:	f2 e9 21 fe ff ff    	bnd jmp 3020 <_init+0x20>
    31ff:	90                   	nop
    3200:	f3 0f 1e fa          	endbr64 
    3204:	68 1d 00 00 00       	push   $0x1d
    3209:	f2 e9 11 fe ff ff    	bnd jmp 3020 <_init+0x20>
    320f:	90                   	nop
    3210:	f3 0f 1e fa          	endbr64 
    3214:	68 1e 00 00 00       	push   $0x1e
    3219:	f2 e9 01 fe ff ff    	bnd jmp 3020 <_init+0x20>
    321f:	90                   	nop
    3220:	f3 0f 1e fa          	endbr64 
    3224:	68 1f 00 00 00       	push   $0x1f
    3229:	f2 e9 f1 fd ff ff    	bnd jmp 3020 <_init+0x20>
    322f:	90                   	nop
    3230:	f3 0f 1e fa          	endbr64 
    3234:	68 20 00 00 00       	push   $0x20
    3239:	f2 e9 e1 fd ff ff    	bnd jmp 3020 <_init+0x20>
    323f:	90                   	nop
    3240:	f3 0f 1e fa          	endbr64 
    3244:	68 21 00 00 00       	push   $0x21
    3249:	f2 e9 d1 fd ff ff    	bnd jmp 3020 <_init+0x20>
    324f:	90                   	nop
    3250:	f3 0f 1e fa          	endbr64 
    3254:	68 22 00 00 00       	push   $0x22
    3259:	f2 e9 c1 fd ff ff    	bnd jmp 3020 <_init+0x20>
    325f:	90                   	nop
    3260:	f3 0f 1e fa          	endbr64 
    3264:	68 23 00 00 00       	push   $0x23
    3269:	f2 e9 b1 fd ff ff    	bnd jmp 3020 <_init+0x20>
    326f:	90                   	nop
    3270:	f3 0f 1e fa          	endbr64 
    3274:	68 24 00 00 00       	push   $0x24
    3279:	f2 e9 a1 fd ff ff    	bnd jmp 3020 <_init+0x20>
    327f:	90                   	nop
    3280:	f3 0f 1e fa          	endbr64 
    3284:	68 25 00 00 00       	push   $0x25
    3289:	f2 e9 91 fd ff ff    	bnd jmp 3020 <_init+0x20>
    328f:	90                   	nop
    3290:	f3 0f 1e fa          	endbr64 
    3294:	68 26 00 00 00       	push   $0x26
    3299:	f2 e9 81 fd ff ff    	bnd jmp 3020 <_init+0x20>
    329f:	90                   	nop
    32a0:	f3 0f 1e fa          	endbr64 
    32a4:	68 27 00 00 00       	push   $0x27
    32a9:	f2 e9 71 fd ff ff    	bnd jmp 3020 <_init+0x20>
    32af:	90                   	nop
    32b0:	f3 0f 1e fa          	endbr64 
    32b4:	68 28 00 00 00       	push   $0x28
    32b9:	f2 e9 61 fd ff ff    	bnd jmp 3020 <_init+0x20>
    32bf:	90                   	nop
    32c0:	f3 0f 1e fa          	endbr64 
    32c4:	68 29 00 00 00       	push   $0x29
    32c9:	f2 e9 51 fd ff ff    	bnd jmp 3020 <_init+0x20>
    32cf:	90                   	nop
    32d0:	f3 0f 1e fa          	endbr64 
    32d4:	68 2a 00 00 00       	push   $0x2a
    32d9:	f2 e9 41 fd ff ff    	bnd jmp 3020 <_init+0x20>
    32df:	90                   	nop
    32e0:	f3 0f 1e fa          	endbr64 
    32e4:	68 2b 00 00 00       	push   $0x2b
    32e9:	f2 e9 31 fd ff ff    	bnd jmp 3020 <_init+0x20>
    32ef:	90                   	nop
    32f0:	f3 0f 1e fa          	endbr64 
    32f4:	68 2c 00 00 00       	push   $0x2c
    32f9:	f2 e9 21 fd ff ff    	bnd jmp 3020 <_init+0x20>
    32ff:	90                   	nop
    3300:	f3 0f 1e fa          	endbr64 
    3304:	68 2d 00 00 00       	push   $0x2d
    3309:	f2 e9 11 fd ff ff    	bnd jmp 3020 <_init+0x20>
    330f:	90                   	nop
    3310:	f3 0f 1e fa          	endbr64 
    3314:	68 2e 00 00 00       	push   $0x2e
    3319:	f2 e9 01 fd ff ff    	bnd jmp 3020 <_init+0x20>
    331f:	90                   	nop
    3320:	f3 0f 1e fa          	endbr64 
    3324:	68 2f 00 00 00       	push   $0x2f
    3329:	f2 e9 f1 fc ff ff    	bnd jmp 3020 <_init+0x20>
    332f:	90                   	nop
    3330:	f3 0f 1e fa          	endbr64 
    3334:	68 30 00 00 00       	push   $0x30
    3339:	f2 e9 e1 fc ff ff    	bnd jmp 3020 <_init+0x20>
    333f:	90                   	nop
    3340:	f3 0f 1e fa          	endbr64 
    3344:	68 31 00 00 00       	push   $0x31
    3349:	f2 e9 d1 fc ff ff    	bnd jmp 3020 <_init+0x20>
    334f:	90                   	nop
    3350:	f3 0f 1e fa          	endbr64 
    3354:	68 32 00 00 00       	push   $0x32
    3359:	f2 e9 c1 fc ff ff    	bnd jmp 3020 <_init+0x20>
    335f:	90                   	nop
    3360:	f3 0f 1e fa          	endbr64 
    3364:	68 33 00 00 00       	push   $0x33
    3369:	f2 e9 b1 fc ff ff    	bnd jmp 3020 <_init+0x20>
    336f:	90                   	nop
    3370:	f3 0f 1e fa          	endbr64 
    3374:	68 34 00 00 00       	push   $0x34
    3379:	f2 e9 a1 fc ff ff    	bnd jmp 3020 <_init+0x20>
    337f:	90                   	nop
    3380:	f3 0f 1e fa          	endbr64 
    3384:	68 35 00 00 00       	push   $0x35
    3389:	f2 e9 91 fc ff ff    	bnd jmp 3020 <_init+0x20>
    338f:	90                   	nop
    3390:	f3 0f 1e fa          	endbr64 
    3394:	68 36 00 00 00       	push   $0x36
    3399:	f2 e9 81 fc ff ff    	bnd jmp 3020 <_init+0x20>
    339f:	90                   	nop
    33a0:	f3 0f 1e fa          	endbr64 
    33a4:	68 37 00 00 00       	push   $0x37
    33a9:	f2 e9 71 fc ff ff    	bnd jmp 3020 <_init+0x20>
    33af:	90                   	nop
    33b0:	f3 0f 1e fa          	endbr64 
    33b4:	68 38 00 00 00       	push   $0x38
    33b9:	f2 e9 61 fc ff ff    	bnd jmp 3020 <_init+0x20>
    33bf:	90                   	nop
    33c0:	f3 0f 1e fa          	endbr64 
    33c4:	68 39 00 00 00       	push   $0x39
    33c9:	f2 e9 51 fc ff ff    	bnd jmp 3020 <_init+0x20>
    33cf:	90                   	nop
    33d0:	f3 0f 1e fa          	endbr64 
    33d4:	68 3a 00 00 00       	push   $0x3a
    33d9:	f2 e9 41 fc ff ff    	bnd jmp 3020 <_init+0x20>
    33df:	90                   	nop
    33e0:	f3 0f 1e fa          	endbr64 
    33e4:	68 3b 00 00 00       	push   $0x3b
    33e9:	f2 e9 31 fc ff ff    	bnd jmp 3020 <_init+0x20>
    33ef:	90                   	nop
    33f0:	f3 0f 1e fa          	endbr64 
    33f4:	68 3c 00 00 00       	push   $0x3c
    33f9:	f2 e9 21 fc ff ff    	bnd jmp 3020 <_init+0x20>
    33ff:	90                   	nop
    3400:	f3 0f 1e fa          	endbr64 
    3404:	68 3d 00 00 00       	push   $0x3d
    3409:	f2 e9 11 fc ff ff    	bnd jmp 3020 <_init+0x20>
    340f:	90                   	nop

Disassembly of section .plt.got:

0000000000003410 <__cxa_finalize@plt>:
    3410:	f3 0f 1e fa          	endbr64 
    3414:	f2 ff 25 a5 0b 02 00 	bnd jmp *0x20ba5(%rip)        # 23fc0 <__cxa_finalize@GLIBC_2.2.5>
    341b:	0f 1f 44 00 00       	nopl   0x0(%rax,%rax,1)

Disassembly of section .plt.sec:

0000000000003420 <_ZNSt7__cxx1112basic_stringIcSt11char_traitsIcESaIcEEaSERKS4_@plt>:
    3420:	f3 0f 1e fa          	endbr64 
    3424:	f2 ff 25 a5 09 02 00 	bnd jmp *0x209a5(%rip)        # 23dd0 <_ZNSt7__cxx1112basic_stringIcSt11char_traitsIcESaIcEEaSERKS4_@GLIBCXX_3.4.21>
    342b:	0f 1f 44 00 00       	nopl   0x0(%rax,%rax,1)

0000000000003430 <_ZNSt7__cxx1112basic_stringIcSt11char_traitsIcESaIcEE6appendEPKcm@plt>:
    3430:	f3 0f 1e fa          	endbr64 
    3434:	f2 ff 25 9d 09 02 00 	bnd jmp *0x2099d(%rip)        # 23dd8 <_ZNSt7__cxx1112basic_stringIcSt11char_traitsIcESaIcEE6appendEPKcm@GLIBCXX_3.4.21>
    343b:	0f 1f 44 00 00       	nopl   0x0(%rax,%rax,1)

0000000000003440 <_ZNSaIcED2Ev@plt>:
    3440:	f3 0f 1e fa          	endbr64 
    3444:	f2 ff 25 95 09 02 00 	bnd jmp *0x20995(%rip)        # 23de0 <_ZNSaIcED2Ev@GLIBCXX_3.4>
    344b:	0f 1f 44 00 00       	nopl   0x0(%rax,%rax,1)

0000000000003450 <_ZSt11_Hash_bytesPKvmm@plt>:
    3450:	f3 0f 1e fa          	endbr64 
    3454:	f2 ff 25 8d 09 02 00 	bnd jmp *0x2098d(%rip)        # 23de8 <_ZSt11_Hash_bytesPKvmm@CXXABI_1.3.5>
    345b:	0f 1f 44 00 00       	nopl   0x0(%rax,%rax,1)

0000000000003460 <_ZNKSt7__cxx1112basic_stringIcSt11char_traitsIcESaIcEE7compareEPKc@plt>:
    3460:	f3 0f 1e fa          	endbr64 
    3464:	f2 ff 25 85 09 02 00 	bnd jmp *0x20985(%rip)        # 23df0 <_ZNKSt7__cxx1112basic_stringIcSt11char_traitsIcESaIcEE7compareEPKc@GLIBCXX_3.4.21>
    346b:	0f 1f 44 00 00       	nopl   0x0(%rax,%rax,1)

0000000000003470 <_ZSt17__throw_bad_allocv@plt>:
    3470:	f3 0f 1e fa          	endbr64 
    3474:	f2 ff 25 7d 09 02 00 	bnd jmp *0x2097d(%rip)        # 23df8 <_ZSt17__throw_bad_allocv@GLIBCXX_3.4>
    347b:	0f 1f 44 00 00       	nopl   0x0(%rax,%rax,1)

0000000000003480 <_ZNKSt7__cxx1112basic_stringIcSt11char_traitsIcESaIcEE13get_allocatorEv@plt>:
    3480:	f3 0f 1e fa          	endbr64 
    3484:	f2 ff 25 75 09 02 00 	bnd jmp *0x20975(%rip)        # 23e00 <_ZNKSt7__cxx1112basic_stringIcSt11char_traitsIcESaIcEE13get_allocatorEv@GLIBCXX_3.4.21>
    348b:	0f 1f 44 00 00       	nopl   0x0(%rax,%rax,1)

0000000000003490 <__cxa_begin_catch@plt>:
    3490:	f3 0f 1e fa          	endbr64 
    3494:	f2 ff 25 6d 09 02 00 	bnd jmp *0x2096d(%rip)        # 23e08 <__cxa_begin_catch@CXXABI_1.3>
    349b:	0f 1f 44 00 00       	nopl   0x0(%rax,%rax,1)

00000000000034a0 <_ZNSt7__cxx1112basic_stringIcSt11char_traitsIcESaIcEEC1ERKS4_@plt>:
    34a0:	f3 0f 1e fa          	endbr64 
    34a4:	f2 ff 25 65 09 02 00 	bnd jmp *0x20965(%rip)        # 23e10 <_ZNSt7__cxx1112basic_stringIcSt11char_traitsIcESaIcEEC1ERKS4_@GLIBCXX_3.4.21>
    34ab:	0f 1f 44 00 00       	nopl   0x0(%rax,%rax,1)

00000000000034b0 <strlen@plt>:
    34b0:	f3 0f 1e fa          	endbr64 
    34b4:	f2 ff 25 5d 09 02 00 	bnd jmp *0x2095d(%rip)        # 23e18 <strlen@GLIBC_2.2.5>
    34bb:	0f 1f 44 00 00       	nopl   0x0(%rax,%rax,1)

00000000000034c0 <memcmp@plt>:
    34c0:	f3 0f 1e fa          	endbr64 
    34c4:	f2 ff 25 55 09 02 00 	bnd jmp *0x20955(%rip)        # 23e20 <memcmp@GLIBC_2.2.5>
    34cb:	0f 1f 44 00 00       	nopl   0x0(%rax,%rax,1)

00000000000034d0 <__cxa_allocate_exception@plt>:
    34d0:	f3 0f 1e fa          	endbr64 
    34d4:	f2 ff 25 4d 09 02 00 	bnd jmp *0x2094d(%rip)        # 23e28 <__cxa_allocate_exception@CXXABI_1.3>
    34db:	0f 1f 44 00 00       	nopl   0x0(%rax,%rax,1)

00000000000034e0 <_ZSt20__throw_length_errorPKc@plt>:
    34e0:	f3 0f 1e fa          	endbr64 
    34e4:	f2 ff 25 45 09 02 00 	bnd jmp *0x20945(%rip)        # 23e30 <_ZSt20__throw_length_errorPKc@GLIBCXX_3.4>
    34eb:	0f 1f 44 00 00       	nopl   0x0(%rax,%rax,1)

00000000000034f0 <memset@plt>:
    34f0:	f3 0f 1e fa          	endbr64 
    34f4:	f2 ff 25 3d 09 02 00 	bnd jmp *0x2093d(%rip)        # 23e38 <memset@GLIBC_2.2.5>
    34fb:	0f 1f 44 00 00       	nopl   0x0(%rax,%rax,1)

0000000000003500 <_ZNSaIcEC1ERKS_@plt>:
    3500:	f3 0f 1e fa          	endbr64 
    3504:	f2 ff 25 35 09 02 00 	bnd jmp *0x20935(%rip)        # 23e40 <_ZNSaIcEC1ERKS_@GLIBCXX_3.4>
    350b:	0f 1f 44 00 00       	nopl   0x0(%rax,%rax,1)

0000000000003510 <_ZNSt7__cxx1112basic_stringIcSt11char_traitsIcESaIcEEC1EOS4_@plt>:
    3510:	f3 0f 1e fa          	endbr64 
    3514:	f2 ff 25 2d 09 02 00 	bnd jmp *0x2092d(%rip)        # 23e48 <_ZNSt7__cxx1112basic_stringIcSt11char_traitsIcESaIcEEC1EOS4_@GLIBCXX_3.4.21>
    351b:	0f 1f 44 00 00       	nopl   0x0(%rax,%rax,1)

0000000000003520 <_ZNSt7__cxx1112basic_stringIcSt11char_traitsIcESaIcEED1Ev@plt>:
    3520:	f3 0f 1e fa          	endbr64 
    3524:	f2 ff 25 25 09 02 00 	bnd jmp *0x20925(%rip)        # 23e50 <_ZNSt7__cxx1112basic_stringIcSt11char_traitsIcESaIcEED1Ev@GLIBCXX_3.4.21>
    352b:	0f 1f 44 00 00       	nopl   0x0(%rax,%rax,1)

0000000000003530 <_ZNSt7__cxx1112basic_stringIcSt11char_traitsIcESaIcEE13_M_set_lengthEm@plt>:
    3530:	f3 0f 1e fa          	endbr64 
    3534:	f2 ff 25 1d 09 02 00 	bnd jmp *0x2091d(%rip)        # 23e58 <_ZNSt7__cxx1112basic_stringIcSt11char_traitsIcESaIcEE13_M_set_lengthEm@GLIBCXX_3.4.21>
    353b:	0f 1f 44 00 00       	nopl   0x0(%rax,%rax,1)

0000000000003540 <_ZNKSt7__cxx1112basic_stringIcSt11char_traitsIcESaIcEE4sizeEv@plt>:
    3540:	f3 0f 1e fa          	endbr64 
    3544:	f2 ff 25 15 09 02 00 	bnd jmp *0x20915(%rip)        # 23e60 <_ZNKSt7__cxx1112basic_stringIcSt11char_traitsIcESaIcEE4sizeEv@GLIBCXX_3.4.21>
    354b:	0f 1f 44 00 00       	nopl   0x0(%rax,%rax,1)

0000000000003550 <_ZNKSt8__detail20_Prime_rehash_policy11_M_next_bktEm@plt>:
    3550:	f3 0f 1e fa          	endbr64 
    3554:	f2 ff 25 0d 09 02 00 	bnd jmp *0x2090d(%rip)        # 23e68 <_ZNKSt8__detail20_Prime_rehash_policy11_M_next_bktEm@GLIBCXX_3.4.18>
    355b:	0f 1f 44 00 00       	nopl   0x0(%rax,%rax,1)

0000000000003560 <_ZSt19__throw_logic_errorPKc@plt>:
    3560:	f3 0f 1e fa          	endbr64 
    3564:	f2 ff 25 05 09 02 00 	bnd jmp *0x20905(%rip)        # 23e70 <_ZSt19__throw_logic_errorPKc@GLIBCXX_3.4>
    356b:	0f 1f 44 00 00       	nopl   0x0(%rax,%rax,1)

0000000000003570 <__cxa_free_exception@plt>:
    3570:	f3 0f 1e fa          	endbr64 
    3574:	f2 ff 25 fd 08 02 00 	bnd jmp *0x208fd(%rip)        # 23e78 <__cxa_free_exception@CXXABI_1.3>
    357b:	0f 1f 44 00 00       	nopl   0x0(%rax,%rax,1)

0000000000003580 <_ZSt28__throw_bad_array_new_lengthv@plt>:
    3580:	f3 0f 1e fa          	endbr64 
    3584:	f2 ff 25 f5 08 02 00 	bnd jmp *0x208f5(%rip)        # 23e80 <_ZSt28__throw_bad_array_new_lengthv@GLIBCXX_3.4.29>
    358b:	0f 1f 44 00 00       	nopl   0x0(%rax,%rax,1)

0000000000003590 <sqrt@plt>:
    3590:	f3 0f 1e fa          	endbr64 
    3594:	f2 ff 25 ed 08 02 00 	bnd jmp *0x208ed(%rip)        # 23e88 <sqrt@GLIBC_2.2.5>
    359b:	0f 1f 44 00 00       	nopl   0x0(%rax,%rax,1)

00000000000035a0 <_ZNSt7__cxx1112basic_stringIcSt11char_traitsIcESaIcEE13_M_local_dataEv@plt>:
    35a0:	f3 0f 1e fa          	endbr64 
    35a4:	f2 ff 25 e5 08 02 00 	bnd jmp *0x208e5(%rip)        # 23e90 <_ZNSt7__cxx1112basic_stringIcSt11char_traitsIcESaIcEE13_M_local_dataEv@GLIBCXX_3.4.21>
    35ab:	0f 1f 44 00 00       	nopl   0x0(%rax,%rax,1)

00000000000035b0 <_ZNSt7__cxx1112basic_stringIcSt11char_traitsIcESaIcEE7_M_dataEPc@plt>:
    35b0:	f3 0f 1e fa          	endbr64 
    35b4:	f2 ff 25 dd 08 02 00 	bnd jmp *0x208dd(%rip)        # 23e98 <_ZNSt7__cxx1112basic_stringIcSt11char_traitsIcESaIcEE7_M_dataEPc@GLIBCXX_3.4.21>
    35bb:	0f 1f 44 00 00       	nopl   0x0(%rax,%rax,1)

00000000000035c0 <__cxa_atexit@plt>:
    35c0:	f3 0f 1e fa          	endbr64 
    35c4:	f2 ff 25 d5 08 02 00 	bnd jmp *0x208d5(%rip)        # 23ea0 <__cxa_atexit@GLIBC_2.2.5>
    35cb:	0f 1f 44 00 00       	nopl   0x0(%rax,%rax,1)

00000000000035d0 <_ZStlsIcSt11char_traitsIcESaIcEERSt13basic_ostreamIT_T0_ES7_RKNSt7__cxx1112basic_stringIS4_S5_T1_EE@plt>:
    35d0:	f3 0f 1e fa          	endbr64 
    35d4:	f2 ff 25 cd 08 02 00 	bnd jmp *0x208cd(%rip)        # 23ea8 <_ZStlsIcSt11char_traitsIcESaIcEERSt13basic_ostreamIT_T0_ES7_RKNSt7__cxx1112basic_stringIS4_S5_T1_EE@GLIBCXX_3.4.21>
    35db:	0f 1f 44 00 00       	nopl   0x0(%rax,%rax,1)

00000000000035e0 <_ZNSt7__cxx1112basic_stringIcSt11char_traitsIcESaIcEEpLEPKc@plt>:
    35e0:	f3 0f 1e fa          	endbr64 
    35e4:	f2 ff 25 c5 08 02 00 	bnd jmp *0x208c5(%rip)        # 23eb0 <_ZNSt7__cxx1112basic_stringIcSt11char_traitsIcESaIcEEpLEPKc@GLIBCXX_3.4.21>
    35eb:	0f 1f 44 00 00       	nopl   0x0(%rax,%rax,1)

00000000000035f0 <_ZStlsISt11char_traitsIcEERSt13basic_ostreamIcT_ES5_PKc@plt>:
    35f0:	f3 0f 1e fa          	endbr64 
    35f4:	f2 ff 25 bd 08 02 00 	bnd jmp *0x208bd(%rip)        # 23eb8 <_ZStlsISt11char_traitsIcEERSt13basic_ostreamIcT_ES5_PKc@GLIBCXX_3.4>
    35fb:	0f 1f 44 00 00       	nopl   0x0(%rax,%rax,1)

0000000000003600 <_Znwm@plt>:
    3600:	f3 0f 1e fa          	endbr64 
    3604:	f2 ff 25 b5 08 02 00 	bnd jmp *0x208b5(%rip)        # 23ec0 <_Znwm@GLIBCXX_3.4>
    360b:	0f 1f 44 00 00       	nopl   0x0(%rax,%rax,1)

0000000000003610 <_ZdlPvm@plt>:
    3610:	f3 0f 1e fa          	endbr64 
    3614:	f2 ff 25 ad 08 02 00 	bnd jmp *0x208ad(%rip)        # 23ec8 <_ZdlPvm@CXXABI_1.3.9>
    361b:	0f 1f 44 00 00       	nopl   0x0(%rax,%rax,1)

0000000000003620 <_ZNSolsEPFRSoS_E@plt>:
    3620:	f3 0f 1e fa          	endbr64 
    3624:	f2 ff 25 a5 08 02 00 	bnd jmp *0x208a5(%rip)        # 23ed0 <_ZNSolsEPFRSoS_E@GLIBCXX_3.4>
    362b:	0f 1f 44 00 00       	nopl   0x0(%rax,%rax,1)

0000000000003630 <_ZNSt7__cxx1112basic_stringIcSt11char_traitsIcESaIcEE12_Alloc_hiderC1EPcRKS3_@plt>:
    3630:	f3 0f 1e fa          	endbr64 
    3634:	f2 ff 25 9d 08 02 00 	bnd jmp *0x2089d(%rip)        # 23ed8 <_ZNSt7__cxx1112basic_stringIcSt11char_traitsIcESaIcEE12_Alloc_hiderC1EPcRKS3_@GLIBCXX_3.4.21>
    363b:	0f 1f 44 00 00       	nopl   0x0(%rax,%rax,1)

0000000000003640 <_ZNSaIcED1Ev@plt>:
    3640:	f3 0f 1e fa          	endbr64 
    3644:	f2 ff 25 95 08 02 00 	bnd jmp *0x20895(%rip)        # 23ee0 <_ZNSaIcED1Ev@GLIBCXX_3.4>
    364b:	0f 1f 44 00 00       	nopl   0x0(%rax,%rax,1)

0000000000003650 <_ZNKSt7__cxx1112basic_stringIcSt11char_traitsIcESaIcEE7_M_dataEv@plt>:
    3650:	f3 0f 1e fa          	endbr64 
    3654:	f2 ff 25 8d 08 02 00 	bnd jmp *0x2088d(%rip)        # 23ee8 <_ZNKSt7__cxx1112basic_stringIcSt11char_traitsIcESaIcEE7_M_dataEv@GLIBCXX_3.4.21>
    365b:	0f 1f 44 00 00       	nopl   0x0(%rax,%rax,1)

0000000000003660 <_ZNSt7__cxx1112basic_stringIcSt11char_traitsIcESaIcEE13_S_copy_charsEPcPKcS7_@plt>:
    3660:	f3 0f 1e fa          	endbr64 
    3664:	f2 ff 25 85 08 02 00 	bnd jmp *0x20885(%rip)        # 23ef0 <_ZNSt7__cxx1112basic_stringIcSt11char_traitsIcESaIcEE13_S_copy_charsEPcPKcS7_@GLIBCXX_3.4.21>
    366b:	0f 1f 44 00 00       	nopl   0x0(%rax,%rax,1)

0000000000003670 <__stack_chk_fail@plt>:
    3670:	f3 0f 1e fa          	endbr64 
    3674:	f2 ff 25 7d 08 02 00 	bnd jmp *0x2087d(%rip)        # 23ef8 <__stack_chk_fail@GLIBC_2.4>
    367b:	0f 1f 44 00 00       	nopl   0x0(%rax,%rax,1)

0000000000003680 <_ZNSt7__cxx1112basic_stringIcSt11char_traitsIcESaIcEEaSEOS4_@plt>:
    3680:	f3 0f 1e fa          	endbr64 
    3684:	f2 ff 25 75 08 02 00 	bnd jmp *0x20875(%rip)        # 23f00 <_ZNSt7__cxx1112basic_stringIcSt11char_traitsIcESaIcEEaSEOS4_@GLIBCXX_3.4.21>
    368b:	0f 1f 44 00 00       	nopl   0x0(%rax,%rax,1)

0000000000003690 <_ZNSt7__cxx1112basic_stringIcSt11char_traitsIcESaIcEE10_M_disposeEv@plt>:
    3690:	f3 0f 1e fa          	endbr64 
    3694:	f2 ff 25 6d 08 02 00 	bnd jmp *0x2086d(%rip)        # 23f08 <_ZNSt7__cxx1112basic_stringIcSt11char_traitsIcESaIcEE10_M_disposeEv@GLIBCXX_3.4.21>
    369b:	0f 1f 44 00 00       	nopl   0x0(%rax,%rax,1)

00000000000036a0 <_ZNSt7__cxx1112basic_stringIcSt11char_traitsIcESaIcEEpLERKS4_@plt>:
    36a0:	f3 0f 1e fa          	endbr64 
    36a4:	f2 ff 25 65 08 02 00 	bnd jmp *0x20865(%rip)        # 23f10 <_ZNSt7__cxx1112basic_stringIcSt11char_traitsIcESaIcEEpLERKS4_@GLIBCXX_3.4.21>
    36ab:	0f 1f 44 00 00       	nopl   0x0(%rax,%rax,1)

00000000000036b0 <_ZNKSt7__cxx1112basic_stringIcSt11char_traitsIcESaIcEE4dataEv@plt>:
    36b0:	f3 0f 1e fa          	endbr64 
    36b4:	f2 ff 25 5d 08 02 00 	bnd jmp *0x2085d(%rip)        # 23f18 <_ZNKSt7__cxx1112basic_stringIcSt11char_traitsIcESaIcEE4dataEv@GLIBCXX_3.4.21>
    36bb:	0f 1f 44 00 00       	nopl   0x0(%rax,%rax,1)

00000000000036c0 <_ZNKSt8__detail20_Prime_rehash_policy14_M_need_rehashEmmm@plt>:
    36c0:	f3 0f 1e fa          	endbr64 
    36c4:	f2 ff 25 55 08 02 00 	bnd jmp *0x20855(%rip)        # 23f20 <_ZNKSt8__detail20_Prime_rehash_policy14_M_need_rehashEmmm@GLIBCXX_3.4.18>
    36cb:	0f 1f 44 00 00       	nopl   0x0(%rax,%rax,1)

00000000000036d0 <_ZNSt7__cxx1112basic_stringIcSt11char_traitsIcESaIcEEC1Ev@plt>:
    36d0:	f3 0f 1e fa          	endbr64 
    36d4:	f2 ff 25 4d 08 02 00 	bnd jmp *0x2084d(%rip)        # 23f28 <_ZNSt7__cxx1112basic_stringIcSt11char_traitsIcESaIcEEC1Ev@GLIBCXX_3.4.21>
    36db:	0f 1f 44 00 00       	nopl   0x0(%rax,%rax,1)

00000000000036e0 <__cxa_rethrow@plt>:
    36e0:	f3 0f 1e fa          	endbr64 
    36e4:	f2 ff 25 45 08 02 00 	bnd jmp *0x20845(%rip)        # 23f30 <__cxa_rethrow@CXXABI_1.3>
    36eb:	0f 1f 44 00 00       	nopl   0x0(%rax,%rax,1)

00000000000036f0 <_ZNKSt7__cxx1112basic_stringIcSt11char_traitsIcESaIcEE6lengthEv@plt>:
    36f0:	f3 0f 1e fa          	endbr64 
    36f4:	f2 ff 25 3d 08 02 00 	bnd jmp *0x2083d(%rip)        # 23f38 <_ZNKSt7__cxx1112basic_stringIcSt11char_traitsIcESaIcEE6lengthEv@GLIBCXX_3.4.21>
    36fb:	0f 1f 44 00 00       	nopl   0x0(%rax,%rax,1)

0000000000003700 <_ZNSt8ios_base4InitC1Ev@plt>:
    3700:	f3 0f 1e fa          	endbr64 
    3704:	f2 ff 25 35 08 02 00 	bnd jmp *0x20835(%rip)        # 23f40 <_ZNSt8ios_base4InitC1Ev@GLIBCXX_3.4>
    370b:	0f 1f 44 00 00       	nopl   0x0(%rax,%rax,1)

0000000000003710 <_ZNSt7__cxx1112basic_stringIcSt11char_traitsIcESaIcEE7reserveEm@plt>:
    3710:	f3 0f 1e fa          	endbr64 
    3714:	f2 ff 25 2d 08 02 00 	bnd jmp *0x2082d(%rip)        # 23f48 <_ZNSt7__cxx1112basic_stringIcSt11char_traitsIcESaIcEE7reserveEm@GLIBCXX_3.4.21>
    371b:	0f 1f 44 00 00       	nopl   0x0(%rax,%rax,1)

0000000000003720 <memmove@plt>:
    3720:	f3 0f 1e fa          	endbr64 
    3724:	f2 ff 25 25 08 02 00 	bnd jmp *0x20825(%rip)        # 23f50 <memmove@GLIBC_2.2.5>
    372b:	0f 1f 44 00 00       	nopl   0x0(%rax,%rax,1)

0000000000003730 <__cxa_end_catch@plt>:
    3730:	f3 0f 1e fa          	endbr64 
    3734:	f2 ff 25 1d 08 02 00 	bnd jmp *0x2081d(%rip)        # 23f58 <__cxa_end_catch@CXXABI_1.3>
    373b:	0f 1f 44 00 00       	nopl   0x0(%rax,%rax,1)

0000000000003740 <_ZNKSt7__cxx1112basic_stringIcSt11char_traitsIcESaIcEE5emptyEv@plt>:
    3740:	f3 0f 1e fa          	endbr64 
    3744:	f2 ff 25 15 08 02 00 	bnd jmp *0x20815(%rip)        # 23f60 <_ZNKSt7__cxx1112basic_stringIcSt11char_traitsIcESaIcEE5emptyEv@GLIBCXX_3.4.21>
    374b:	0f 1f 44 00 00       	nopl   0x0(%rax,%rax,1)

0000000000003750 <__cxa_throw@plt>:
    3750:	f3 0f 1e fa          	endbr64 
    3754:	f2 ff 25 0d 08 02 00 	bnd jmp *0x2080d(%rip)        # 23f68 <__cxa_throw@CXXABI_1.3>
    375b:	0f 1f 44 00 00       	nopl   0x0(%rax,%rax,1)

0000000000003760 <_ZNSt7__cxx1112basic_stringIcSt11char_traitsIcESaIcEEC1ERKS3_@plt>:
    3760:	f3 0f 1e fa          	endbr64 
    3764:	f2 ff 25 05 08 02 00 	bnd jmp *0x20805(%rip)        # 23f70 <_ZNSt7__cxx1112basic_stringIcSt11char_traitsIcESaIcEEC1ERKS3_@GLIBCXX_3.4.21>
    376b:	0f 1f 44 00 00       	nopl   0x0(%rax,%rax,1)

0000000000003770 <_ZNSt16invalid_argumentC1ERKNSt7__cxx1112basic_stringIcSt11char_traitsIcESaIcEEE@plt>:
    3770:	f3 0f 1e fa          	endbr64 
    3774:	f2 ff 25 fd 07 02 00 	bnd jmp *0x207fd(%rip)        # 23f78 <_ZNSt16invalid_argumentC1ERKNSt7__cxx1112basic_stringIcSt11char_traitsIcESaIcEEE@GLIBCXX_3.4.21>
    377b:	0f 1f 44 00 00       	nopl   0x0(%rax,%rax,1)

0000000000003780 <_Unwind_Resume@plt>:
    3780:	f3 0f 1e fa          	endbr64 
    3784:	f2 ff 25 f5 07 02 00 	bnd jmp *0x207f5(%rip)        # 23f80 <_Unwind_Resume@GCC_3.0>
    378b:	0f 1f 44 00 00       	nopl   0x0(%rax,%rax,1)

0000000000003790 <_ZNSaIcEC1Ev@plt>:
    3790:	f3 0f 1e fa          	endbr64 
    3794:	f2 ff 25 ed 07 02 00 	bnd jmp *0x207ed(%rip)        # 23f88 <_ZNSaIcEC1Ev@GLIBCXX_3.4>
    379b:	0f 1f 44 00 00       	nopl   0x0(%rax,%rax,1)

00000000000037a0 <_ZNSt7__cxx1112basic_stringIcSt11char_traitsIcESaIcEE9_M_createERmm@plt>:
    37a0:	f3 0f 1e fa          	endbr64 
    37a4:	f2 ff 25 e5 07 02 00 	bnd jmp *0x207e5(%rip)        # 23f90 <_ZNSt7__cxx1112basic_stringIcSt11char_traitsIcESaIcEE9_M_createERmm@GLIBCXX_3.4.21>
    37ab:	0f 1f 44 00 00       	nopl   0x0(%rax,%rax,1)

00000000000037b0 <_ZNSolsEd@plt>:
    37b0:	f3 0f 1e fa          	endbr64 
    37b4:	f2 ff 25 dd 07 02 00 	bnd jmp *0x207dd(%rip)        # 23f98 <_ZNSolsEd@GLIBCXX_3.4>
    37bb:	0f 1f 44 00 00       	nopl   0x0(%rax,%rax,1)

00000000000037c0 <_ZNSt7__cxx1112basic_stringIcSt11char_traitsIcESaIcEE6appendEPKc@plt>:
    37c0:	f3 0f 1e fa          	endbr64 
    37c4:	f2 ff 25 d5 07 02 00 	bnd jmp *0x207d5(%rip)        # 23fa0 <_ZNSt7__cxx1112basic_stringIcSt11char_traitsIcESaIcEE6appendEPKc@GLIBCXX_3.4.21>
    37cb:	0f 1f 44 00 00       	nopl   0x0(%rax,%rax,1)

00000000000037d0 <_ZNSt7__cxx1112basic_stringIcSt11char_traitsIcESaIcEE6appendERKS4_@plt>:
    37d0:	f3 0f 1e fa          	endbr64 
    37d4:	f2 ff 25 cd 07 02 00 	bnd jmp *0x207cd(%rip)        # 23fa8 <_ZNSt7__cxx1112basic_stringIcSt11char_traitsIcESaIcEE6appendERKS4_@GLIBCXX_3.4.21>
    37db:	0f 1f 44 00 00       	nopl   0x0(%rax,%rax,1)

00000000000037e0 <_ZNSt7__cxx1112basic_stringIcSt11char_traitsIcESaIcEE11_M_capacityEm@plt>:
    37e0:	f3 0f 1e fa          	endbr64 
    37e4:	f2 ff 25 c5 07 02 00 	bnd jmp *0x207c5(%rip)        # 23fb0 <_ZNSt7__cxx1112basic_stringIcSt11char_traitsIcESaIcEE11_M_capacityEm@GLIBCXX_3.4.21>
    37eb:	0f 1f 44 00 00       	nopl   0x0(%rax,%rax,1)

00000000000037f0 <_ZNKSt7__cxx1112basic_stringIcSt11char_traitsIcESaIcEE4findEPKcm@plt>:
    37f0:	f3 0f 1e fa          	endbr64 
    37f4:	f2 ff 25 bd 07 02 00 	bnd jmp *0x207bd(%rip)        # 23fb8 <_ZNKSt7__cxx1112basic_stringIcSt11char_traitsIcESaIcEE4findEPKcm@GLIBCXX_3.4.21>
    37fb:	0f 1f 44 00 00       	nopl   0x0(%rax,%rax,1)

Disassembly of section .text:

0000000000003800 <_start>:
    3800:	f3 0f 1e fa          	endbr64 
    3804:	31 ed                	xor    %ebp,%ebp
    3806:	49 89 d1             	mov    %rdx,%r9
    3809:	5e                   	pop    %rsi
    380a:	48 89 e2             	mov    %rsp,%rdx
    380d:	48 83 e4 f0          	and    $0xfffffffffffffff0,%rsp
    3811:	50                   	push   %rax
    3812:	54                   	push   %rsp
    3813:	45 31 c0             	xor    %r8d,%r8d
    3816:	31 c9                	xor    %ecx,%ecx
    3818:	48 8d 3d ca 00 00 00 	lea    0xca(%rip),%rdi        # 38e9 <main>
    381f:	ff 15 ab 07 02 00    	call   *0x207ab(%rip)        # 23fd0 <__libc_start_main@GLIBC_2.34>
    3825:	f4                   	hlt    
    3826:	66 2e 0f 1f 84 00 00 	cs nopw 0x0(%rax,%rax,1)
    382d:	00 00 00 

0000000000003830 <deregister_tm_clones>:
    3830:	48 8d 3d e1 07 02 00 	lea    0x207e1(%rip),%rdi        # 24018 <__TMC_END__>
    3837:	48 8d 05 da 07 02 00 	lea    0x207da(%rip),%rax        # 24018 <__TMC_END__>
    383e:	48 39 f8             	cmp    %rdi,%rax
    3841:	74 15                	je     3858 <deregister_tm_clones+0x28>
    3843:	48 8b 05 96 07 02 00 	mov    0x20796(%rip),%rax        # 23fe0 <_ITM_deregisterTMCloneTable@Base>
    384a:	48 85 c0             	test   %rax,%rax
    384d:	74 09                	je     3858 <deregister_tm_clones+0x28>
    384f:	ff e0                	jmp    *%rax
    3851:	0f 1f 80 00 00 00 00 	nopl   0x0(%rax)
    3858:	c3                   	ret    
    3859:	0f 1f 80 00 00 00 00 	nopl   0x0(%rax)

0000000000003860 <register_tm_clones>:
    3860:	48 8d 3d b1 07 02 00 	lea    0x207b1(%rip),%rdi        # 24018 <__TMC_END__>
    3867:	48 8d 35 aa 07 02 00 	lea    0x207aa(%rip),%rsi        # 24018 <__TMC_END__>
    386e:	48 29 fe             	sub    %rdi,%rsi
    3871:	48 89 f0             	mov    %rsi,%rax
    3874:	48 c1 ee 3f          	shr    $0x3f,%rsi
    3878:	48 c1 f8 03          	sar    $0x3,%rax
    387c:	48 01 c6             	add    %rax,%rsi
    387f:	48 d1 fe             	sar    %rsi
    3882:	74 14                	je     3898 <register_tm_clones+0x38>
    3884:	48 8b 05 65 07 02 00 	mov    0x20765(%rip),%rax        # 23ff0 <_ITM_registerTMCloneTable@Base>
    388b:	48 85 c0             	test   %rax,%rax
    388e:	74 08                	je     3898 <register_tm_clones+0x38>
    3890:	ff e0                	jmp    *%rax
    3892:	66 0f 1f 44 00 00    	nopw   0x0(%rax,%rax,1)
    3898:	c3                   	ret    
    3899:	0f 1f 80 00 00 00 00 	nopl   0x0(%rax)

00000000000038a0 <__do_global_dtors_aux>:
    38a0:	f3 0f 1e fa          	endbr64 
    38a4:	80 3d a5 08 02 00 00 	cmpb   $0x0,0x208a5(%rip)        # 24150 <completed.0>
    38ab:	75 2b                	jne    38d8 <__do_global_dtors_aux+0x38>
    38ad:	55                   	push   %rbp
    38ae:	48 83 3d 0a 07 02 00 	cmpq   $0x0,0x2070a(%rip)        # 23fc0 <__cxa_finalize@GLIBC_2.2.5>
    38b5:	00 
    38b6:	48 89 e5             	mov    %rsp,%rbp
    38b9:	74 0c                	je     38c7 <__do_global_dtors_aux+0x27>
    38bb:	48 8b 3d 46 07 02 00 	mov    0x20746(%rip),%rdi        # 24008 <__dso_handle>
    38c2:	e8 49 fb ff ff       	call   3410 <__cxa_finalize@plt>
    38c7:	e8 64 ff ff ff       	call   3830 <deregister_tm_clones>
    38cc:	c6 05 7d 08 02 00 01 	movb   $0x1,0x2087d(%rip)        # 24150 <completed.0>
    38d3:	5d                   	pop    %rbp
    38d4:	c3                   	ret    
    38d5:	0f 1f 00             	nopl   (%rax)
    38d8:	c3                   	ret    
    38d9:	0f 1f 80 00 00 00 00 	nopl   0x0(%rax)

00000000000038e0 <frame_dummy>:
    38e0:	f3 0f 1e fa          	endbr64 
    38e4:	e9 77 ff ff ff       	jmp    3860 <register_tm_clones>

00000000000038e9 <main>:
    38e9:	f3 0f 1e fa          	endbr64 
    38ed:	55                   	push   %rbp
    38ee:	48 89 e5             	mov    %rsp,%rbp
    38f1:	53                   	push   %rbx
    38f2:	48 81 ec 88 01 00 00 	sub    $0x188,%rsp
    38f9:	64 48 8b 04 25 28 00 	mov    %fs:0x28,%rax
    3900:	00 00 
    3902:	48 89 45 e8          	mov    %rax,-0x18(%rbp)
    3906:	31 c0                	xor    %eax,%eax
    3908:	48 8d 85 90 fe ff ff 	lea    -0x170(%rbp),%rax
    390f:	48 89 c7             	mov    %rax,%rdi
    3912:	e8 d7 07 00 00       	call   40ee <_ZNSt13unordered_mapINSt7__cxx1112basic_stringIcSt11char_traitsIcESaIcEEE8RegisterSt4hashIS5_ESt8equal_toIS5_ESaISt4pairIKS5_S6_EEEC1Ev>
    3917:	48 8d 85 70 fe ff ff 	lea    -0x190(%rbp),%rax
    391e:	48 8d 95 90 fe ff ff 	lea    -0x170(%rbp),%rdx
    3925:	48 89 d6             	mov    %rdx,%rsi
    3928:	48 89 c7             	mov    %rax,%rdi
    392b:	e8 00 ea 00 00       	call   12330 <_Z19define_instructionsRSt13unordered_mapINSt7__cxx1112basic_stringIcSt11char_traitsIcESaIcEEE8RegisterSt4hashIS5_ESt8equal_toIS5_ESaISt4pairIKS5_S6_EEE>
    3930:	48 8d 95 90 fe ff ff 	lea    -0x170(%rbp),%rdx
    3937:	48 8d 8d 70 fe ff ff 	lea    -0x190(%rbp),%rcx
    393e:	48 8d 85 d0 fe ff ff 	lea    -0x130(%rbp),%rax
    3945:	48 89 ce             	mov    %rcx,%rsi
    3948:	48 89 c7             	mov    %rax,%rdi
    394b:	e8 b4 05 00 00       	call   3f04 <_ZN20InstructionSchedulerC1ERKSt6vectorI12DInstructionSaIS1_EERKSt13unordered_mapINSt7__cxx1112basic_stringIcSt11char_traitsIcESaIcEEE8RegisterSt4hashISC_ESt8equal_toISC_ESaISt4pairIKSC_SD_EEE>
    3950:	48 8d 85 d0 fe ff ff 	lea    -0x130(%rbp),%rax
    3957:	48 89 c7             	mov    %rax,%rdi
    395a:	e8 9f 69 00 00       	call   a2fe <_ZN20InstructionScheduler7executeEv>
    395f:	bb 00 00 00 00       	mov    $0x0,%ebx
    3964:	48 8d 85 d0 fe ff ff 	lea    -0x130(%rbp),%rax
    396b:	48 89 c7             	mov    %rax,%rdi
    396e:	e8 9b 07 00 00       	call   410e <_ZN20InstructionSchedulerD1Ev>
    3973:	48 8d 85 70 fe ff ff 	lea    -0x190(%rbp),%rax
    397a:	48 89 c7             	mov    %rax,%rdi
    397d:	e8 70 0a 00 00       	call   43f2 <_ZNSt6vectorI12DInstructionSaIS0_EED1Ev>
    3982:	48 8d 85 90 fe ff ff 	lea    -0x170(%rbp),%rax
    3989:	48 89 c7             	mov    %rax,%rdi
    398c:	e8 4b 02 00 00       	call   3bdc <_ZNSt13unordered_mapINSt7__cxx1112basic_stringIcSt11char_traitsIcESaIcEEE8RegisterSt4hashIS5_ESt8equal_toIS5_ESaISt4pairIKS5_S6_EEED1Ev>
    3991:	89 d8                	mov    %ebx,%eax
    3993:	48 8b 55 e8          	mov    -0x18(%rbp),%rdx
    3997:	64 48 2b 14 25 28 00 	sub    %fs:0x28,%rdx
    399e:	00 00 
    39a0:	74 58                	je     39fa <main+0x111>
    39a2:	eb 51                	jmp    39f5 <main+0x10c>
    39a4:	f3 0f 1e fa          	endbr64 
    39a8:	48 89 c3             	mov    %rax,%rbx
    39ab:	48 8d 85 d0 fe ff ff 	lea    -0x130(%rbp),%rax
    39b2:	48 89 c7             	mov    %rax,%rdi
    39b5:	e8 54 07 00 00       	call   410e <_ZN20InstructionSchedulerD1Ev>
    39ba:	eb 07                	jmp    39c3 <main+0xda>
    39bc:	f3 0f 1e fa          	endbr64 
    39c0:	48 89 c3             	mov    %rax,%rbx
    39c3:	48 8d 85 70 fe ff ff 	lea    -0x190(%rbp),%rax
    39ca:	48 89 c7             	mov    %rax,%rdi
    39cd:	e8 20 0a 00 00       	call   43f2 <_ZNSt6vectorI12DInstructionSaIS0_EED1Ev>
    39d2:	eb 07                	jmp    39db <main+0xf2>
    39d4:	f3 0f 1e fa          	endbr64 
    39d8:	48 89 c3             	mov    %rax,%rbx
    39db:	48 8d 85 90 fe ff ff 	lea    -0x170(%rbp),%rax
    39e2:	48 89 c7             	mov    %rax,%rdi
    39e5:	e8 f2 01 00 00       	call   3bdc <_ZNSt13unordered_mapINSt7__cxx1112basic_stringIcSt11char_traitsIcESaIcEEE8RegisterSt4hashIS5_ESt8equal_toIS5_ESaISt4pairIKS5_S6_EEED1Ev>
    39ea:	48 89 d8             	mov    %rbx,%rax
    39ed:	48 89 c7             	mov    %rax,%rdi
    39f0:	e8 8b fd ff ff       	call   3780 <_Unwind_Resume@plt>
    39f5:	e8 76 fc ff ff       	call   3670 <__stack_chk_fail@plt>
    39fa:	48 8b 5d f8          	mov    -0x8(%rbp),%rbx
    39fe:	c9                   	leave  
    39ff:	c3                   	ret    

0000000000003a00 <_Z41__static_initialization_and_destruction_0ii>:
    3a00:	f3 0f 1e fa          	endbr64 
    3a04:	55                   	push   %rbp
    3a05:	48 89 e5             	mov    %rsp,%rbp
    3a08:	48 83 ec 10          	sub    $0x10,%rsp
    3a0c:	89 7d fc             	mov    %edi,-0x4(%rbp)
    3a0f:	89 75 f8             	mov    %esi,-0x8(%rbp)
    3a12:	83 7d fc 01          	cmpl   $0x1,-0x4(%rbp)
    3a16:	75 3b                	jne    3a53 <_Z41__static_initialization_and_destruction_0ii+0x53>
    3a18:	81 7d f8 ff ff 00 00 	cmpl   $0xffff,-0x8(%rbp)
    3a1f:	75 32                	jne    3a53 <_Z41__static_initialization_and_destruction_0ii+0x53>
    3a21:	48 8d 05 29 07 02 00 	lea    0x20729(%rip),%rax        # 24151 <_ZStL8__ioinit>
    3a28:	48 89 c7             	mov    %rax,%rdi
    3a2b:	e8 d0 fc ff ff       	call   3700 <_ZNSt8ios_base4InitC1Ev@plt>
    3a30:	48 8d 05 d1 05 02 00 	lea    0x205d1(%rip),%rax        # 24008 <__dso_handle>
    3a37:	48 89 c2             	mov    %rax,%rdx
    3a3a:	48 8d 05 10 07 02 00 	lea    0x20710(%rip),%rax        # 24151 <_ZStL8__ioinit>
    3a41:	48 89 c6             	mov    %rax,%rsi
    3a44:	48 8b 05 ad 05 02 00 	mov    0x205ad(%rip),%rax        # 23ff8 <_ZNSt8ios_base4InitD1Ev@GLIBCXX_3.4>
    3a4b:	48 89 c7             	mov    %rax,%rdi
    3a4e:	e8 6d fb ff ff       	call   35c0 <__cxa_atexit@plt>
    3a53:	90                   	nop
    3a54:	c9                   	leave  
    3a55:	c3                   	ret    

0000000000003a56 <_GLOBAL__sub_I_main>:
    3a56:	f3 0f 1e fa          	endbr64 
    3a5a:	55                   	push   %rbp
    3a5b:	48 89 e5             	mov    %rsp,%rbp
    3a5e:	be ff ff 00 00       	mov    $0xffff,%esi
    3a63:	bf 01 00 00 00       	mov    $0x1,%edi
    3a68:	e8 93 ff ff ff       	call   3a00 <_Z41__static_initialization_and_destruction_0ii>
    3a6d:	5d                   	pop    %rbp
    3a6e:	c3                   	ret    

0000000000003a6f <_ZnwmPv>:
    3a6f:	f3 0f 1e fa          	endbr64 
    3a73:	55                   	push   %rbp
    3a74:	48 89 e5             	mov    %rsp,%rbp
    3a77:	48 89 7d f8          	mov    %rdi,-0x8(%rbp)
    3a7b:	48 89 75 f0          	mov    %rsi,-0x10(%rbp)
    3a7f:	48 8b 45 f0          	mov    -0x10(%rbp),%rax
    3a83:	5d                   	pop    %rbp
    3a84:	c3                   	ret    

0000000000003a85 <_ZdlPvS_>:
    3a85:	f3 0f 1e fa          	endbr64 
    3a89:	55                   	push   %rbp
    3a8a:	48 89 e5             	mov    %rsp,%rbp
    3a8d:	48 89 7d f8          	mov    %rdi,-0x8(%rbp)
    3a91:	48 89 75 f0          	mov    %rsi,-0x10(%rbp)
    3a95:	90                   	nop
    3a96:	5d                   	pop    %rbp
    3a97:	c3                   	ret    

0000000000003a98 <_ZNSt8__detail15_Hash_node_baseC1Ev>:
    3a98:	f3 0f 1e fa          	endbr64 
    3a9c:	55                   	push   %rbp
    3a9d:	48 89 e5             	mov    %rsp,%rbp
    3aa0:	48 89 7d f8          	mov    %rdi,-0x8(%rbp)
    3aa4:	48 8b 45 f8          	mov    -0x8(%rbp),%rax
    3aa8:	48 c7 00 00 00 00 00 	movq   $0x0,(%rax)
    3aaf:	90                   	nop
    3ab0:	5d                   	pop    %rbp
    3ab1:	c3                   	ret    

0000000000003ab2 <_ZNKSt8__detail18_Mod_range_hashingclEmm>:
    3ab2:	f3 0f 1e fa          	endbr64 
    3ab6:	55                   	push   %rbp
    3ab7:	48 89 e5             	mov    %rsp,%rbp
    3aba:	48 89 7d f8          	mov    %rdi,-0x8(%rbp)
    3abe:	48 89 75 f0          	mov    %rsi,-0x10(%rbp)
    3ac2:	48 89 55 e8          	mov    %rdx,-0x18(%rbp)
    3ac6:	48 8b 45 f0          	mov    -0x10(%rbp),%rax
    3aca:	ba 00 00 00 00       	mov    $0x0,%edx
    3acf:	48 f7 75 e8          	divq   -0x18(%rbp)
    3ad3:	48 89 d0             	mov    %rdx,%rax
    3ad6:	5d                   	pop    %rbp
    3ad7:	c3                   	ret    

0000000000003ad8 <_ZNSt8__detail20_Prime_rehash_policyC1Ef>:
    3ad8:	f3 0f 1e fa          	endbr64 
    3adc:	55                   	push   %rbp
    3add:	48 89 e5             	mov    %rsp,%rbp
    3ae0:	48 89 7d f8          	mov    %rdi,-0x8(%rbp)
    3ae4:	f3 0f 11 45 f4       	movss  %xmm0,-0xc(%rbp)
    3ae9:	48 8b 45 f8          	mov    -0x8(%rbp),%rax
    3aed:	f3 0f 10 45 f4       	movss  -0xc(%rbp),%xmm0
    3af2:	f3 0f 11 00          	movss  %xmm0,(%rax)
    3af6:	48 8b 45 f8          	mov    -0x8(%rbp),%rax
    3afa:	48 c7 40 08 00 00 00 	movq   $0x0,0x8(%rax)
    3b01:	00 
    3b02:	90                   	nop
    3b03:	5d                   	pop    %rbp
    3b04:	c3                   	ret    
    3b05:	90                   	nop

0000000000003b06 <_ZNSt12_Vector_baseINSt7__cxx1112basic_stringIcSt11char_traitsIcESaIcEEESaIS5_EE12_Vector_implD1Ev>:
    3b06:	f3 0f 1e fa          	endbr64 
    3b0a:	55                   	push   %rbp
    3b0b:	48 89 e5             	mov    %rsp,%rbp
    3b0e:	48 83 ec 10          	sub    $0x10,%rsp
    3b12:	48 89 7d f8          	mov    %rdi,-0x8(%rbp)
    3b16:	48 8b 45 f8          	mov    -0x8(%rbp),%rax
    3b1a:	48 89 c7             	mov    %rax,%rdi
    3b1d:	e8 7e 06 00 00       	call   41a0 <_ZNSaINSt7__cxx1112basic_stringIcSt11char_traitsIcESaIcEEEED1Ev>
    3b22:	90                   	nop
    3b23:	c9                   	leave  
    3b24:	c3                   	ret    
    3b25:	90                   	nop

0000000000003b26 <_ZNSt8__detail21_Hashtable_ebo_helperILi0ESaINS_10_Hash_nodeISt4pairIKNSt7__cxx1112basic_stringIcSt11char_traitsIcESaIcEEES8_ELb1EEEELb1EED1Ev>:
    3b26:	f3 0f 1e fa          	endbr64 
    3b2a:	55                   	push   %rbp
    3b2b:	48 89 e5             	mov    %rsp,%rbp
    3b2e:	48 83 ec 10          	sub    $0x10,%rsp
    3b32:	48 89 7d f8          	mov    %rdi,-0x8(%rbp)
    3b36:	48 8b 45 f8          	mov    -0x8(%rbp),%rax
    3b3a:	48 89 c7             	mov    %rax,%rdi
    3b3d:	e8 38 07 00 00       	call   427a <_ZNSaINSt8__detail10_Hash_nodeISt4pairIKNSt7__cxx1112basic_stringIcSt11char_traitsIcESaIcEEES7_ELb1EEEED1Ev>
    3b42:	90                   	nop
    3b43:	c9                   	leave  
    3b44:	c3                   	ret    
    3b45:	90                   	nop

0000000000003b46 <_ZNSt8__detail16_Hashtable_allocISaINS_10_Hash_nodeISt4pairIKNSt7__cxx1112basic_stringIcSt11char_traitsIcESaIcEEES8_ELb1EEEEED1Ev>:
    3b46:	f3 0f 1e fa          	endbr64 
    3b4a:	55                   	push   %rbp
    3b4b:	48 89 e5             	mov    %rsp,%rbp
    3b4e:	48 83 ec 10          	sub    $0x10,%rsp
    3b52:	48 89 7d f8          	mov    %rdi,-0x8(%rbp)
    3b56:	48 8b 45 f8          	mov    -0x8(%rbp),%rax
    3b5a:	48 89 c7             	mov    %rax,%rdi
    3b5d:	e8 c4 ff ff ff       	call   3b26 <_ZNSt8__detail21_Hashtable_ebo_helperILi0ESaINS_10_Hash_nodeISt4pairIKNSt7__cxx1112basic_stringIcSt11char_traitsIcESaIcEEES8_ELb1EEEELb1EED1Ev>
    3b62:	90                   	nop
    3b63:	c9                   	leave  
    3b64:	c3                   	ret    
    3b65:	90                   	nop

0000000000003b66 <_ZNSt13unordered_mapINSt7__cxx1112basic_stringIcSt11char_traitsIcESaIcEEES5_St4hashIS5_ESt8equal_toIS5_ESaISt4pairIKS5_S5_EEED1Ev>:
    3b66:	f3 0f 1e fa          	endbr64 
    3b6a:	55                   	push   %rbp
    3b6b:	48 89 e5             	mov    %rsp,%rbp
    3b6e:	48 83 ec 10          	sub    $0x10,%rsp
    3b72:	48 89 7d f8          	mov    %rdi,-0x8(%rbp)
    3b76:	48 8b 45 f8          	mov    -0x8(%rbp),%rax
    3b7a:	48 89 c7             	mov    %rax,%rdi
    3b7d:	e8 18 07 00 00       	call   429a <_ZNSt10_HashtableINSt7__cxx1112basic_stringIcSt11char_traitsIcESaIcEEESt4pairIKS5_S5_ESaIS8_ENSt8__detail10_Select1stESt8equal_toIS5_ESt4hashIS5_ENSA_18_Mod_range_hashingENSA_20_Default_ranged_hashENSA_20_Prime_rehash_policyENSA_17_Hashtable_traitsILb1ELb0ELb1EEEED1Ev>
    3b82:	90                   	nop
    3b83:	c9                   	leave  
    3b84:	c3                   	ret    

0000000000003b85 <_ZSt16__deque_buf_sizem>:
    3b85:	f3 0f 1e fa          	endbr64 
    3b89:	55                   	push   %rbp
    3b8a:	48 89 e5             	mov    %rsp,%rbp
    3b8d:	48 89 7d f8          	mov    %rdi,-0x8(%rbp)
    3b91:	48 81 7d f8 ff 01 00 	cmpq   $0x1ff,-0x8(%rbp)
    3b98:	00 
    3b99:	77 10                	ja     3bab <_ZSt16__deque_buf_sizem+0x26>
    3b9b:	b8 00 02 00 00       	mov    $0x200,%eax
    3ba0:	ba 00 00 00 00       	mov    $0x0,%edx
    3ba5:	48 f7 75 f8          	divq   -0x8(%rbp)
    3ba9:	eb 05                	jmp    3bb0 <_ZSt16__deque_buf_sizem+0x2b>
    3bab:	b8 01 00 00 00       	mov    $0x1,%eax
    3bb0:	5d                   	pop    %rbp
    3bb1:	c3                   	ret    

0000000000003bb2 <_ZNSt13unordered_mapINSt7__cxx1112basic_stringIcSt11char_traitsIcESaIcEEE8RegisterSt4hashIS5_ESt8equal_toIS5_ESaISt4pairIKS5_S6_EEEC1ERKSF_>:
    3bb2:	f3 0f 1e fa          	endbr64 
    3bb6:	55                   	push   %rbp
    3bb7:	48 89 e5             	mov    %rsp,%rbp
    3bba:	48 83 ec 10          	sub    $0x10,%rsp
    3bbe:	48 89 7d f8          	mov    %rdi,-0x8(%rbp)
    3bc2:	48 89 75 f0          	mov    %rsi,-0x10(%rbp)
    3bc6:	48 8b 45 f8          	mov    -0x8(%rbp),%rax
    3bca:	48 8b 55 f0          	mov    -0x10(%rbp),%rdx
    3bce:	48 89 d6             	mov    %rdx,%rsi
    3bd1:	48 89 c7             	mov    %rax,%rdi
    3bd4:	e8 61 08 00 00       	call   443a <_ZNSt10_HashtableINSt7__cxx1112basic_stringIcSt11char_traitsIcESaIcEEESt4pairIKS5_8RegisterESaIS9_ENSt8__detail10_Select1stESt8equal_toIS5_ESt4hashIS5_ENSB_18_Mod_range_hashingENSB_20_Default_ranged_hashENSB_20_Prime_rehash_policyENSB_17_Hashtable_traitsILb1ELb0ELb1EEEEC1ERKSM_>
    3bd9:	90                   	nop
    3bda:	c9                   	leave  
    3bdb:	c3                   	ret    

0000000000003bdc <_ZNSt13unordered_mapINSt7__cxx1112basic_stringIcSt11char_traitsIcESaIcEEE8RegisterSt4hashIS5_ESt8equal_toIS5_ESaISt4pairIKS5_S6_EEED1Ev>:
    3bdc:	f3 0f 1e fa          	endbr64 
    3be0:	55                   	push   %rbp
    3be1:	48 89 e5             	mov    %rsp,%rbp
    3be4:	48 83 ec 10          	sub    $0x10,%rsp
    3be8:	48 89 7d f8          	mov    %rdi,-0x8(%rbp)
    3bec:	48 8b 45 f8          	mov    -0x8(%rbp),%rax
    3bf0:	48 89 c7             	mov    %rax,%rdi
    3bf3:	e8 84 09 00 00       	call   457c <_ZNSt10_HashtableINSt7__cxx1112basic_stringIcSt11char_traitsIcESaIcEEESt4pairIKS5_8RegisterESaIS9_ENSt8__detail10_Select1stESt8equal_toIS5_ESt4hashIS5_ENSB_18_Mod_range_hashingENSB_20_Default_ranged_hashENSB_20_Prime_rehash_policyENSB_17_Hashtable_traitsILb1ELb0ELb1EEEED1Ev>
    3bf8:	90                   	nop
    3bf9:	c9                   	leave  
    3bfa:	c3                   	ret    
    3bfb:	90                   	nop

0000000000003bfc <_ZNSt5queueI12DInstructionSt5dequeIS0_SaIS0_EEED1Ev>:
    3bfc:	f3 0f 1e fa          	endbr64 
    3c00:	55                   	push   %rbp
    3c01:	48 89 e5             	mov    %rsp,%rbp
    3c04:	48 83 ec 10          	sub    $0x10,%rsp
    3c08:	48 89 7d f8          	mov    %rdi,-0x8(%rbp)
    3c0c:	48 8b 45 f8          	mov    -0x8(%rbp),%rax
    3c10:	48 89 c7             	mov    %rax,%rdi
    3c13:	e8 f6 09 00 00       	call   460e <_ZNSt5dequeI12DInstructionSaIS0_EED1Ev>
    3c18:	90                   	nop
    3c19:	c9                   	leave  
    3c1a:	c3                   	ret    
    3c1b:	90                   	nop

0000000000003c1c <_ZNSt8__detail15_Hash_code_baseINSt7__cxx1112basic_stringIcSt11char_traitsIcESaIcEEESt4pairIKS6_iENS_10_Select1stESt4hashIS6_ENS_18_Mod_range_hashingENS_20_Default_ranged_hashELb1EEC1Ev>:
    3c1c:	f3 0f 1e fa          	endbr64 
    3c20:	55                   	push   %rbp
    3c21:	48 89 e5             	mov    %rsp,%rbp
    3c24:	48 83 ec 10          	sub    $0x10,%rsp
    3c28:	48 89 7d f8          	mov    %rdi,-0x8(%rbp)
    3c2c:	48 8b 45 f8          	mov    -0x8(%rbp),%rax
    3c30:	48 89 c7             	mov    %rax,%rdi
    3c33:	e8 22 06 00 00       	call   425a <_ZNSt8__detail21_Hashtable_ebo_helperILi1ESt4hashINSt7__cxx1112basic_stringIcSt11char_traitsIcESaIcEEEELb1EEC1Ev>
    3c38:	90                   	nop
    3c39:	c9                   	leave  
    3c3a:	c3                   	ret    
    3c3b:	90                   	nop

0000000000003c3c <_ZNSt8__detail15_Hashtable_baseINSt7__cxx1112basic_stringIcSt11char_traitsIcESaIcEEESt4pairIKS6_iENS_10_Select1stESt8equal_toIS6_ESt4hashIS6_ENS_18_Mod_range_hashingENS_20_Default_ranged_hashENS_17_Hashtable_traitsILb1ELb0ELb1EEEEC1Ev>:
    3c3c:	f3 0f 1e fa          	endbr64 
    3c40:	55                   	push   %rbp
    3c41:	48 89 e5             	mov    %rsp,%rbp
    3c44:	48 83 ec 10          	sub    $0x10,%rsp
    3c48:	48 89 7d f8          	mov    %rdi,-0x8(%rbp)
    3c4c:	48 8b 45 f8          	mov    -0x8(%rbp),%rax
    3c50:	48 89 c7             	mov    %rax,%rdi
    3c53:	e8 c4 ff ff ff       	call   3c1c <_ZNSt8__detail15_Hash_code_baseINSt7__cxx1112basic_stringIcSt11char_traitsIcESaIcEEESt4pairIKS6_iENS_10_Select1stESt4hashIS6_ENS_18_Mod_range_hashingENS_20_Default_ranged_hashELb1EEC1Ev>
    3c58:	48 8b 45 f8          	mov    -0x8(%rbp),%rax
    3c5c:	48 89 c7             	mov    %rax,%rdi
    3c5f:	e8 06 06 00 00       	call   426a <_ZNSt8__detail21_Hashtable_ebo_helperILi0ESt8equal_toINSt7__cxx1112basic_stringIcSt11char_traitsIcESaIcEEEELb1EEC1Ev>
    3c64:	90                   	nop
    3c65:	c9                   	leave  
    3c66:	c3                   	ret    
    3c67:	90                   	nop

0000000000003c68 <_ZNSt8__detail21_Hashtable_ebo_helperILi0ESaINS_10_Hash_nodeISt4pairIKNSt7__cxx1112basic_stringIcSt11char_traitsIcESaIcEEEiELb1EEEELb1EED1Ev>:
    3c68:	f3 0f 1e fa          	endbr64 
    3c6c:	55                   	push   %rbp
    3c6d:	48 89 e5             	mov    %rsp,%rbp
    3c70:	48 83 ec 10          	sub    $0x10,%rsp
    3c74:	48 89 7d f8          	mov    %rdi,-0x8(%rbp)
    3c78:	48 8b 45 f8          	mov    -0x8(%rbp),%rax
    3c7c:	48 89 c7             	mov    %rax,%rdi
    3c7f:	e8 3e 0a 00 00       	call   46c2 <_ZNSaINSt8__detail10_Hash_nodeISt4pairIKNSt7__cxx1112basic_stringIcSt11char_traitsIcESaIcEEEiELb1EEEED1Ev>
    3c84:	90                   	nop
    3c85:	c9                   	leave  
    3c86:	c3                   	ret    
    3c87:	90                   	nop

0000000000003c88 <_ZNSt8__detail16_Hashtable_allocISaINS_10_Hash_nodeISt4pairIKNSt7__cxx1112basic_stringIcSt11char_traitsIcESaIcEEEiELb1EEEEEC1Ev>:
    3c88:	f3 0f 1e fa          	endbr64 
    3c8c:	55                   	push   %rbp
    3c8d:	48 89 e5             	mov    %rsp,%rbp
    3c90:	48 83 ec 10          	sub    $0x10,%rsp
    3c94:	48 89 7d f8          	mov    %rdi,-0x8(%rbp)
    3c98:	48 8b 45 f8          	mov    -0x8(%rbp),%rax
    3c9c:	48 89 c7             	mov    %rax,%rdi
    3c9f:	e8 fe 09 00 00       	call   46a2 <_ZNSt8__detail21_Hashtable_ebo_helperILi0ESaINS_10_Hash_nodeISt4pairIKNSt7__cxx1112basic_stringIcSt11char_traitsIcESaIcEEEiELb1EEEELb1EEC1Ev>
    3ca4:	90                   	nop
    3ca5:	c9                   	leave  
    3ca6:	c3                   	ret    
    3ca7:	90                   	nop

0000000000003ca8 <_ZNSt8__detail16_Hashtable_allocISaINS_10_Hash_nodeISt4pairIKNSt7__cxx1112basic_stringIcSt11char_traitsIcESaIcEEEiELb1EEEEED1Ev>:
    3ca8:	f3 0f 1e fa          	endbr64 
    3cac:	55                   	push   %rbp
    3cad:	48 89 e5             	mov    %rsp,%rbp
    3cb0:	48 83 ec 10          	sub    $0x10,%rsp
    3cb4:	48 89 7d f8          	mov    %rdi,-0x8(%rbp)
    3cb8:	48 8b 45 f8          	mov    -0x8(%rbp),%rax
    3cbc:	48 89 c7             	mov    %rax,%rdi
    3cbf:	e8 a4 ff ff ff       	call   3c68 <_ZNSt8__detail21_Hashtable_ebo_helperILi0ESaINS_10_Hash_nodeISt4pairIKNSt7__cxx1112basic_stringIcSt11char_traitsIcESaIcEEEiELb1EEEELb1EED1Ev>
    3cc4:	90                   	nop
    3cc5:	c9                   	leave  
    3cc6:	c3                   	ret    
    3cc7:	90                   	nop

0000000000003cc8 <_ZNSt10_HashtableINSt7__cxx1112basic_stringIcSt11char_traitsIcESaIcEEESt4pairIKS5_iESaIS8_ENSt8__detail10_Select1stESt8equal_toIS5_ESt4hashIS5_ENSA_18_Mod_range_hashingENSA_20_Default_ranged_hashENSA_20_Prime_rehash_policyENSA_17_Hashtable_traitsILb1ELb0ELb1EEEEC1Ev>:
    3cc8:	f3 0f 1e fa          	endbr64 
    3ccc:	55                   	push   %rbp
    3ccd:	48 89 e5             	mov    %rsp,%rbp
    3cd0:	48 83 ec 10          	sub    $0x10,%rsp
    3cd4:	48 89 7d f8          	mov    %rdi,-0x8(%rbp)
    3cd8:	48 8b 45 f8          	mov    -0x8(%rbp),%rax
    3cdc:	48 89 c7             	mov    %rax,%rdi
    3cdf:	e8 58 ff ff ff       	call   3c3c <_ZNSt8__detail15_Hashtable_baseINSt7__cxx1112basic_stringIcSt11char_traitsIcESaIcEEESt4pairIKS6_iENS_10_Select1stESt8equal_toIS6_ESt4hashIS6_ENS_18_Mod_range_hashingENS_20_Default_ranged_hashENS_17_Hashtable_traitsILb1ELb0ELb1EEEEC1Ev>
    3ce4:	48 8b 45 f8          	mov    -0x8(%rbp),%rax
    3ce8:	48 89 c7             	mov    %rax,%rdi
    3ceb:	e8 98 ff ff ff       	call   3c88 <_ZNSt8__detail16_Hashtable_allocISaINS_10_Hash_nodeISt4pairIKNSt7__cxx1112basic_stringIcSt11char_traitsIcESaIcEEEiELb1EEEEEC1Ev>
    3cf0:	48 8b 45 f8          	mov    -0x8(%rbp),%rax
    3cf4:	48 8d 50 30          	lea    0x30(%rax),%rdx
    3cf8:	48 8b 45 f8          	mov    -0x8(%rbp),%rax
    3cfc:	48 89 10             	mov    %rdx,(%rax)
    3cff:	48 8b 45 f8          	mov    -0x8(%rbp),%rax
    3d03:	48 c7 40 08 01 00 00 	movq   $0x1,0x8(%rax)
    3d0a:	00 
    3d0b:	48 8b 45 f8          	mov    -0x8(%rbp),%rax
    3d0f:	48 83 c0 10          	add    $0x10,%rax
    3d13:	48 89 c7             	mov    %rax,%rdi
    3d16:	e8 7d fd ff ff       	call   3a98 <_ZNSt8__detail15_Hash_node_baseC1Ev>
    3d1b:	48 8b 45 f8          	mov    -0x8(%rbp),%rax
    3d1f:	48 c7 40 18 00 00 00 	movq   $0x0,0x18(%rax)
    3d26:	00 
    3d27:	48 8b 45 f8          	mov    -0x8(%rbp),%rax
    3d2b:	48 8d 50 20          	lea    0x20(%rax),%rdx
    3d2f:	8b 05 cf 42 01 00    	mov    0x142cf(%rip),%eax        # 18004 <_IO_stdin_used+0x4>
    3d35:	66 0f 6e c0          	movd   %eax,%xmm0
    3d39:	48 89 d7             	mov    %rdx,%rdi
    3d3c:	e8 97 fd ff ff       	call   3ad8 <_ZNSt8__detail20_Prime_rehash_policyC1Ef>
    3d41:	48 8b 45 f8          	mov    -0x8(%rbp),%rax
    3d45:	48 c7 40 30 00 00 00 	movq   $0x0,0x30(%rax)
    3d4c:	00 
    3d4d:	90                   	nop
    3d4e:	c9                   	leave  
    3d4f:	c3                   	ret    

0000000000003d50 <_ZNSt13unordered_mapINSt7__cxx1112basic_stringIcSt11char_traitsIcESaIcEEEiSt4hashIS5_ESt8equal_toIS5_ESaISt4pairIKS5_iEEEC1Ev>:
    3d50:	f3 0f 1e fa          	endbr64 
    3d54:	55                   	push   %rbp
    3d55:	48 89 e5             	mov    %rsp,%rbp
    3d58:	48 83 ec 10          	sub    $0x10,%rsp
    3d5c:	48 89 7d f8          	mov    %rdi,-0x8(%rbp)
    3d60:	48 8b 45 f8          	mov    -0x8(%rbp),%rax
    3d64:	48 89 c7             	mov    %rax,%rdi
    3d67:	e8 5c ff ff ff       	call   3cc8 <_ZNSt10_HashtableINSt7__cxx1112basic_stringIcSt11char_traitsIcESaIcEEESt4pairIKS5_iESaIS8_ENSt8__detail10_Select1stESt8equal_toIS5_ESt4hashIS5_ENSA_18_Mod_range_hashingENSA_20_Default_ranged_hashENSA_20_Prime_rehash_policyENSA_17_Hashtable_traitsILb1ELb0ELb1EEEEC1Ev>
    3d6c:	90                   	nop
    3d6d:	c9                   	leave  
    3d6e:	c3                   	ret    
    3d6f:	90                   	nop

0000000000003d70 <_ZNSt13unordered_mapINSt7__cxx1112basic_stringIcSt11char_traitsIcESaIcEEEiSt4hashIS5_ESt8equal_toIS5_ESaISt4pairIKS5_iEEED1Ev>:
    3d70:	f3 0f 1e fa          	endbr64 
    3d74:	55                   	push   %rbp
    3d75:	48 89 e5             	mov    %rsp,%rbp
    3d78:	48 83 ec 10          	sub    $0x10,%rsp
    3d7c:	48 89 7d f8          	mov    %rdi,-0x8(%rbp)
    3d80:	48 8b 45 f8          	mov    -0x8(%rbp),%rax
    3d84:	48 89 c7             	mov    %rax,%rdi
    3d87:	e8 56 09 00 00       	call   46e2 <_ZNSt10_HashtableINSt7__cxx1112basic_stringIcSt11char_traitsIcESaIcEEESt4pairIKS5_iESaIS8_ENSt8__detail10_Select1stESt8equal_toIS5_ESt4hashIS5_ENSA_18_Mod_range_hashingENSA_20_Default_ranged_hashENSA_20_Prime_rehash_policyENSA_17_Hashtable_traitsILb1ELb0ELb1EEEED1Ev>
    3d8c:	90                   	nop
    3d8d:	c9                   	leave  
    3d8e:	c3                   	ret    
    3d8f:	90                   	nop

0000000000003d90 <_ZNSt8__detail15_Hash_code_baseINSt7__cxx1112basic_stringIcSt11char_traitsIcESaIcEEESt4pairIKS6_12DInstructionENS_10_Select1stESt4hashIS6_ENS_18_Mod_range_hashingENS_20_Default_ranged_hashELb1EEC1Ev>:
    3d90:	f3 0f 1e fa          	endbr64 
    3d94:	55                   	push   %rbp
    3d95:	48 89 e5             	mov    %rsp,%rbp
    3d98:	48 83 ec 10          	sub    $0x10,%rsp
    3d9c:	48 89 7d f8          	mov    %rdi,-0x8(%rbp)
    3da0:	48 8b 45 f8          	mov    -0x8(%rbp),%rax
    3da4:	48 89 c7             	mov    %rax,%rdi
    3da7:	e8 ae 04 00 00       	call   425a <_ZNSt8__detail21_Hashtable_ebo_helperILi1ESt4hashINSt7__cxx1112basic_stringIcSt11char_traitsIcESaIcEEEELb1EEC1Ev>
    3dac:	90                   	nop
    3dad:	c9                   	leave  
    3dae:	c3                   	ret    
    3daf:	90                   	nop

0000000000003db0 <_ZNSt8__detail15_Hashtable_baseINSt7__cxx1112basic_stringIcSt11char_traitsIcESaIcEEESt4pairIKS6_12DInstructionENS_10_Select1stESt8equal_toIS6_ESt4hashIS6_ENS_18_Mod_range_hashingENS_20_Default_ranged_hashENS_17_Hashtable_traitsILb1ELb0ELb1EEEEC1Ev>:
    3db0:	f3 0f 1e fa          	endbr64 
    3db4:	55                   	push   %rbp
    3db5:	48 89 e5             	mov    %rsp,%rbp
    3db8:	48 83 ec 10          	sub    $0x10,%rsp
    3dbc:	48 89 7d f8          	mov    %rdi,-0x8(%rbp)
    3dc0:	48 8b 45 f8          	mov    -0x8(%rbp),%rax
    3dc4:	48 89 c7             	mov    %rax,%rdi
    3dc7:	e8 c4 ff ff ff       	call   3d90 <_ZNSt8__detail15_Hash_code_baseINSt7__cxx1112basic_stringIcSt11char_traitsIcESaIcEEESt4pairIKS6_12DInstructionENS_10_Select1stESt4hashIS6_ENS_18_Mod_range_hashingENS_20_Default_ranged_hashELb1EEC1Ev>
    3dcc:	48 8b 45 f8          	mov    -0x8(%rbp),%rax
    3dd0:	48 89 c7             	mov    %rax,%rdi
    3dd3:	e8 92 04 00 00       	call   426a <_ZNSt8__detail21_Hashtable_ebo_helperILi0ESt8equal_toINSt7__cxx1112basic_stringIcSt11char_traitsIcESaIcEEEELb1EEC1Ev>
    3dd8:	90                   	nop
    3dd9:	c9                   	leave  
    3dda:	c3                   	ret    
    3ddb:	90                   	nop

0000000000003ddc <_ZNSt8__detail21_Hashtable_ebo_helperILi0ESaINS_10_Hash_nodeISt4pairIKNSt7__cxx1112basic_stringIcSt11char_traitsIcESaIcEEE12DInstructionELb1EEEELb1EED1Ev>:
    3ddc:	f3 0f 1e fa          	endbr64 
    3de0:	55                   	push   %rbp
    3de1:	48 89 e5             	mov    %rsp,%rbp
    3de4:	48 83 ec 10          	sub    $0x10,%rsp
    3de8:	48 89 7d f8          	mov    %rdi,-0x8(%rbp)
    3dec:	48 8b 45 f8          	mov    -0x8(%rbp),%rax
    3df0:	48 89 c7             	mov    %rax,%rdi
    3df3:	e8 42 09 00 00       	call   473a <_ZNSaINSt8__detail10_Hash_nodeISt4pairIKNSt7__cxx1112basic_stringIcSt11char_traitsIcESaIcEEE12DInstructionELb1EEEED1Ev>
    3df8:	90                   	nop
    3df9:	c9                   	leave  
    3dfa:	c3                   	ret    
    3dfb:	90                   	nop

0000000000003dfc <_ZNSt8__detail16_Hashtable_allocISaINS_10_Hash_nodeISt4pairIKNSt7__cxx1112basic_stringIcSt11char_traitsIcESaIcEEE12DInstructionELb1EEEEEC1Ev>:
    3dfc:	f3 0f 1e fa          	endbr64 
    3e00:	55                   	push   %rbp
    3e01:	48 89 e5             	mov    %rsp,%rbp
    3e04:	48 83 ec 10          	sub    $0x10,%rsp
    3e08:	48 89 7d f8          	mov    %rdi,-0x8(%rbp)
    3e0c:	48 8b 45 f8          	mov    -0x8(%rbp),%rax
    3e10:	48 89 c7             	mov    %rax,%rdi
    3e13:	e8 02 09 00 00       	call   471a <_ZNSt8__detail21_Hashtable_ebo_helperILi0ESaINS_10_Hash_nodeISt4pairIKNSt7__cxx1112basic_stringIcSt11char_traitsIcESaIcEEE12DInstructionELb1EEEELb1EEC1Ev>
    3e18:	90                   	nop
    3e19:	c9                   	leave  
    3e1a:	c3                   	ret    
    3e1b:	90                   	nop

0000000000003e1c <_ZNSt8__detail16_Hashtable_allocISaINS_10_Hash_nodeISt4pairIKNSt7__cxx1112basic_stringIcSt11char_traitsIcESaIcEEE12DInstructionELb1EEEEED1Ev>:
    3e1c:	f3 0f 1e fa          	endbr64 
    3e20:	55                   	push   %rbp
    3e21:	48 89 e5             	mov    %rsp,%rbp
    3e24:	48 83 ec 10          	sub    $0x10,%rsp
    3e28:	48 89 7d f8          	mov    %rdi,-0x8(%rbp)
    3e2c:	48 8b 45 f8          	mov    -0x8(%rbp),%rax
    3e30:	48 89 c7             	mov    %rax,%rdi
    3e33:	e8 a4 ff ff ff       	call   3ddc <_ZNSt8__detail21_Hashtable_ebo_helperILi0ESaINS_10_Hash_nodeISt4pairIKNSt7__cxx1112basic_stringIcSt11char_traitsIcESaIcEEE12DInstructionELb1EEEELb1EED1Ev>
    3e38:	90                   	nop
    3e39:	c9                   	leave  
    3e3a:	c3                   	ret    
    3e3b:	90                   	nop

0000000000003e3c <_ZNSt10_HashtableINSt7__cxx1112basic_stringIcSt11char_traitsIcESaIcEEESt4pairIKS5_12DInstructionESaIS9_ENSt8__detail10_Select1stESt8equal_toIS5_ESt4hashIS5_ENSB_18_Mod_range_hashingENSB_20_Default_ranged_hashENSB_20_Prime_rehash_policyENSB_17_Hashtable_traitsILb1ELb0ELb1EEEEC1Ev>:
    3e3c:	f3 0f 1e fa          	endbr64 
    3e40:	55                   	push   %rbp
    3e41:	48 89 e5             	mov    %rsp,%rbp
    3e44:	48 83 ec 10          	sub    $0x10,%rsp
    3e48:	48 89 7d f8          	mov    %rdi,-0x8(%rbp)
    3e4c:	48 8b 45 f8          	mov    -0x8(%rbp),%rax
    3e50:	48 89 c7             	mov    %rax,%rdi
    3e53:	e8 58 ff ff ff       	call   3db0 <_ZNSt8__detail15_Hashtable_baseINSt7__cxx1112basic_stringIcSt11char_traitsIcESaIcEEESt4pairIKS6_12DInstructionENS_10_Select1stESt8equal_toIS6_ESt4hashIS6_ENS_18_Mod_range_hashingENS_20_Default_ranged_hashENS_17_Hashtable_traitsILb1ELb0ELb1EEEEC1Ev>
    3e58:	48 8b 45 f8          	mov    -0x8(%rbp),%rax
    3e5c:	48 89 c7             	mov    %rax,%rdi
    3e5f:	e8 98 ff ff ff       	call   3dfc <_ZNSt8__detail16_Hashtable_allocISaINS_10_Hash_nodeISt4pairIKNSt7__cxx1112basic_stringIcSt11char_traitsIcESaIcEEE12DInstructionELb1EEEEEC1Ev>
    3e64:	48 8b 45 f8          	mov    -0x8(%rbp),%rax
    3e68:	48 8d 50 30          	lea    0x30(%rax),%rdx
    3e6c:	48 8b 45 f8          	mov    -0x8(%rbp),%rax
    3e70:	48 89 10             	mov    %rdx,(%rax)
    3e73:	48 8b 45 f8          	mov    -0x8(%rbp),%rax
    3e77:	48 c7 40 08 01 00 00 	movq   $0x1,0x8(%rax)
    3e7e:	00 
    3e7f:	48 8b 45 f8          	mov    -0x8(%rbp),%rax
    3e83:	48 83 c0 10          	add    $0x10,%rax
    3e87:	48 89 c7             	mov    %rax,%rdi
    3e8a:	e8 09 fc ff ff       	call   3a98 <_ZNSt8__detail15_Hash_node_baseC1Ev>
    3e8f:	48 8b 45 f8          	mov    -0x8(%rbp),%rax
    3e93:	48 c7 40 18 00 00 00 	movq   $0x0,0x18(%rax)
    3e9a:	00 
    3e9b:	48 8b 45 f8          	mov    -0x8(%rbp),%rax
    3e9f:	48 8d 50 20          	lea    0x20(%rax),%rdx
    3ea3:	8b 05 5b 41 01 00    	mov    0x1415b(%rip),%eax        # 18004 <_IO_stdin_used+0x4>
    3ea9:	66 0f 6e c0          	movd   %eax,%xmm0
    3ead:	48 89 d7             	mov    %rdx,%rdi
    3eb0:	e8 23 fc ff ff       	call   3ad8 <_ZNSt8__detail20_Prime_rehash_policyC1Ef>
    3eb5:	48 8b 45 f8          	mov    -0x8(%rbp),%rax
    3eb9:	48 c7 40 30 00 00 00 	movq   $0x0,0x30(%rax)
    3ec0:	00 
    3ec1:	90                   	nop
    3ec2:	c9                   	leave  
    3ec3:	c3                   	ret    

0000000000003ec4 <_ZNSt13unordered_mapINSt7__cxx1112basic_stringIcSt11char_traitsIcESaIcEEE12DInstructionSt4hashIS5_ESt8equal_toIS5_ESaISt4pairIKS5_S6_EEEC1Ev>:
    3ec4:	f3 0f 1e fa          	endbr64 
    3ec8:	55                   	push   %rbp
    3ec9:	48 89 e5             	mov    %rsp,%rbp
    3ecc:	48 83 ec 10          	sub    $0x10,%rsp
    3ed0:	48 89 7d f8          	mov    %rdi,-0x8(%rbp)
    3ed4:	48 8b 45 f8          	mov    -0x8(%rbp),%rax
    3ed8:	48 89 c7             	mov    %rax,%rdi
    3edb:	e8 5c ff ff ff       	call   3e3c <_ZNSt10_HashtableINSt7__cxx1112basic_stringIcSt11char_traitsIcESaIcEEESt4pairIKS5_12DInstructionESaIS9_ENSt8__detail10_Select1stESt8equal_toIS5_ESt4hashIS5_ENSB_18_Mod_range_hashingENSB_20_Default_ranged_hashENSB_20_Prime_rehash_policyENSB_17_Hashtable_traitsILb1ELb0ELb1EEEEC1Ev>
    3ee0:	90                   	nop
    3ee1:	c9                   	leave  
    3ee2:	c3                   	ret    
    3ee3:	90                   	nop

0000000000003ee4 <_ZNSt13unordered_mapINSt7__cxx1112basic_stringIcSt11char_traitsIcESaIcEEE12DInstructionSt4hashIS5_ESt8equal_toIS5_ESaISt4pairIKS5_S6_EEED1Ev>:
    3ee4:	f3 0f 1e fa          	endbr64 
    3ee8:	55                   	push   %rbp
    3ee9:	48 89 e5             	mov    %rsp,%rbp
    3eec:	48 83 ec 10          	sub    $0x10,%rsp
    3ef0:	48 89 7d f8          	mov    %rdi,-0x8(%rbp)
    3ef4:	48 8b 45 f8          	mov    -0x8(%rbp),%rax
    3ef8:	48 89 c7             	mov    %rax,%rdi
    3efb:	e8 5a 08 00 00       	call   475a <_ZNSt10_HashtableINSt7__cxx1112basic_stringIcSt11char_traitsIcESaIcEEESt4pairIKS5_12DInstructionESaIS9_ENSt8__detail10_Select1stESt8equal_toIS5_ESt4hashIS5_ENSB_18_Mod_range_hashingENSB_20_Default_ranged_hashENSB_20_Prime_rehash_policyENSB_17_Hashtable_traitsILb1ELb0ELb1EEEED1Ev>
    3f00:	90                   	nop
    3f01:	c9                   	leave  
    3f02:	c3                   	ret    
    3f03:	90                   	nop

0000000000003f04 <_ZN20InstructionSchedulerC1ERKSt6vectorI12DInstructionSaIS1_EERKSt13unordered_mapINSt7__cxx1112basic_stringIcSt11char_traitsIcESaIcEEE8RegisterSt4hashISC_ESt8equal_toISC_ESaISt4pairIKSC_SD_EEE>:
    3f04:	f3 0f 1e fa          	endbr64 
    3f08:	55                   	push   %rbp
    3f09:	48 89 e5             	mov    %rsp,%rbp
    3f0c:	53                   	push   %rbx
    3f0d:	48 83 ec 28          	sub    $0x28,%rsp
    3f11:	48 89 7d e8          	mov    %rdi,-0x18(%rbp)
    3f15:	48 89 75 e0          	mov    %rsi,-0x20(%rbp)
    3f19:	48 89 55 d8          	mov    %rdx,-0x28(%rbp)
    3f1d:	48 8b 45 e8          	mov    -0x18(%rbp),%rax
    3f21:	48 8b 55 e0          	mov    -0x20(%rbp),%rdx
    3f25:	48 89 d6             	mov    %rdx,%rsi
    3f28:	48 89 c7             	mov    %rax,%rdi
    3f2b:	e8 a2 03 00 00       	call   42d2 <_ZNSt6vectorI12DInstructionSaIS0_EEC1ERKS2_>
    3f30:	48 8b 45 e8          	mov    -0x18(%rbp),%rax
    3f34:	48 8d 50 18          	lea    0x18(%rax),%rdx
    3f38:	48 8b 45 d8          	mov    -0x28(%rbp),%rax
    3f3c:	48 89 c6             	mov    %rax,%rsi
    3f3f:	48 89 d7             	mov    %rdx,%rdi
    3f42:	e8 6b fc ff ff       	call   3bb2 <_ZNSt13unordered_mapINSt7__cxx1112basic_stringIcSt11char_traitsIcESaIcEEE8RegisterSt4hashIS5_ESt8equal_toIS5_ESaISt4pairIKS5_S6_EEEC1ERKSF_>
    3f47:	48 8b 45 e8          	mov    -0x18(%rbp),%rax
    3f4b:	48 83 c0 50          	add    $0x50,%rax
    3f4f:	48 89 c7             	mov    %rax,%rdi
    3f52:	e8 7d 06 00 00       	call   45d4 <_ZNSt5queueI12DInstructionSt5dequeIS0_SaIS0_EEEC1IS3_vEEv>
    3f57:	48 8b 45 e8          	mov    -0x18(%rbp),%rax
    3f5b:	48 05 a0 00 00 00    	add    $0xa0,%rax
    3f61:	48 89 c7             	mov    %rax,%rdi
    3f64:	e8 e7 fd ff ff       	call   3d50 <_ZNSt13unordered_mapINSt7__cxx1112basic_stringIcSt11char_traitsIcESaIcEEEiSt4hashIS5_ESt8equal_toIS5_ESaISt4pairIKS5_iEEEC1Ev>
    3f69:	48 8b 45 e8          	mov    -0x18(%rbp),%rax
    3f6d:	48 05 d8 00 00 00    	add    $0xd8,%rax
    3f73:	48 89 c7             	mov    %rax,%rdi
    3f76:	e8 49 ff ff ff       	call   3ec4 <_ZNSt13unordered_mapINSt7__cxx1112basic_stringIcSt11char_traitsIcESaIcEEE12DInstructionSt4hashIS5_ESt8equal_toIS5_ESaISt4pairIKS5_S6_EEEC1Ev>
    3f7b:	eb 37                	jmp    3fb4 <_ZN20InstructionSchedulerC1ERKSt6vectorI12DInstructionSaIS1_EERKSt13unordered_mapINSt7__cxx1112basic_stringIcSt11char_traitsIcESaIcEEE8RegisterSt4hashISC_ESt8equal_toISC_ESaISt4pairIKSC_SD_EEE+0xb0>
    3f7d:	f3 0f 1e fa          	endbr64 
    3f81:	48 89 c3             	mov    %rax,%rbx
    3f84:	48 8b 45 e8          	mov    -0x18(%rbp),%rax
    3f88:	48 83 c0 18          	add    $0x18,%rax
    3f8c:	48 89 c7             	mov    %rax,%rdi
    3f8f:	e8 48 fc ff ff       	call   3bdc <_ZNSt13unordered_mapINSt7__cxx1112basic_stringIcSt11char_traitsIcESaIcEEE8RegisterSt4hashIS5_ESt8equal_toIS5_ESaISt4pairIKS5_S6_EEED1Ev>
    3f94:	eb 07                	jmp    3f9d <_ZN20InstructionSchedulerC1ERKSt6vectorI12DInstructionSaIS1_EERKSt13unordered_mapINSt7__cxx1112basic_stringIcSt11char_traitsIcESaIcEEE8RegisterSt4hashISC_ESt8equal_toISC_ESaISt4pairIKSC_SD_EEE+0x99>
    3f96:	f3 0f 1e fa          	endbr64 
    3f9a:	48 89 c3             	mov    %rax,%rbx
    3f9d:	48 8b 45 e8          	mov    -0x18(%rbp),%rax
    3fa1:	48 89 c7             	mov    %rax,%rdi
    3fa4:	e8 49 04 00 00       	call   43f2 <_ZNSt6vectorI12DInstructionSaIS0_EED1Ev>
    3fa9:	48 89 d8             	mov    %rbx,%rax
    3fac:	48 89 c7             	mov    %rax,%rdi
    3faf:	e8 cc f7 ff ff       	call   3780 <_Unwind_Resume@plt>
    3fb4:	48 8b 5d f8          	mov    -0x8(%rbp),%rbx
    3fb8:	c9                   	leave  
    3fb9:	c3                   	ret    

0000000000003fba <_ZNSt8__detail15_Hash_code_baseINSt7__cxx1112basic_stringIcSt11char_traitsIcESaIcEEESt4pairIKS6_8RegisterENS_10_Select1stESt4hashIS6_ENS_18_Mod_range_hashingENS_20_Default_ranged_hashELb1EEC1Ev>:
    3fba:	f3 0f 1e fa          	endbr64 
    3fbe:	55                   	push   %rbp
    3fbf:	48 89 e5             	mov    %rsp,%rbp
    3fc2:	48 83 ec 10          	sub    $0x10,%rsp
    3fc6:	48 89 7d f8          	mov    %rdi,-0x8(%rbp)
    3fca:	48 8b 45 f8          	mov    -0x8(%rbp),%rax
    3fce:	48 89 c7             	mov    %rax,%rdi
    3fd1:	e8 84 02 00 00       	call   425a <_ZNSt8__detail21_Hashtable_ebo_helperILi1ESt4hashINSt7__cxx1112basic_stringIcSt11char_traitsIcESaIcEEEELb1EEC1Ev>
    3fd6:	90                   	nop
    3fd7:	c9                   	leave  
    3fd8:	c3                   	ret    
    3fd9:	90                   	nop

0000000000003fda <_ZNSt8__detail15_Hashtable_baseINSt7__cxx1112basic_stringIcSt11char_traitsIcESaIcEEESt4pairIKS6_8RegisterENS_10_Select1stESt8equal_toIS6_ESt4hashIS6_ENS_18_Mod_range_hashingENS_20_Default_ranged_hashENS_17_Hashtable_traitsILb1ELb0ELb1EEEEC1Ev>:
    3fda:	f3 0f 1e fa          	endbr64 
    3fde:	55                   	push   %rbp
    3fdf:	48 89 e5             	mov    %rsp,%rbp
    3fe2:	48 83 ec 10          	sub    $0x10,%rsp
    3fe6:	48 89 7d f8          	mov    %rdi,-0x8(%rbp)
    3fea:	48 8b 45 f8          	mov    -0x8(%rbp),%rax
    3fee:	48 89 c7             	mov    %rax,%rdi
    3ff1:	e8 c4 ff ff ff       	call   3fba <_ZNSt8__detail15_Hash_code_baseINSt7__cxx1112basic_stringIcSt11char_traitsIcESaIcEEESt4pairIKS6_8RegisterENS_10_Select1stESt4hashIS6_ENS_18_Mod_range_hashingENS_20_Default_ranged_hashELb1EEC1Ev>
    3ff6:	48 8b 45 f8          	mov    -0x8(%rbp),%rax
    3ffa:	48 89 c7             	mov    %rax,%rdi
    3ffd:	e8 68 02 00 00       	call   426a <_ZNSt8__detail21_Hashtable_ebo_helperILi0ESt8equal_toINSt7__cxx1112basic_stringIcSt11char_traitsIcESaIcEEEELb1EEC1Ev>
    4002:	90                   	nop
    4003:	c9                   	leave  
    4004:	c3                   	ret    
    4005:	90                   	nop

0000000000004006 <_ZNSt8__detail21_Hashtable_ebo_helperILi0ESaINS_10_Hash_nodeISt4pairIKNSt7__cxx1112basic_stringIcSt11char_traitsIcESaIcEEE8RegisterELb1EEEELb1EED1Ev>:
    4006:	f3 0f 1e fa          	endbr64 
    400a:	55                   	push   %rbp
    400b:	48 89 e5             	mov    %rsp,%rbp
    400e:	48 83 ec 10          	sub    $0x10,%rsp
    4012:	48 89 7d f8          	mov    %rdi,-0x8(%rbp)
    4016:	48 8b 45 f8          	mov    -0x8(%rbp),%rax
    401a:	48 89 c7             	mov    %rax,%rdi
    401d:	e8 90 07 00 00       	call   47b2 <_ZNSaINSt8__detail10_Hash_nodeISt4pairIKNSt7__cxx1112basic_stringIcSt11char_traitsIcESaIcEEE8RegisterELb1EEEED1Ev>
    4022:	90                   	nop
    4023:	c9                   	leave  
    4024:	c3                   	ret    
    4025:	90                   	nop

0000000000004026 <_ZNSt8__detail16_Hashtable_allocISaINS_10_Hash_nodeISt4pairIKNSt7__cxx1112basic_stringIcSt11char_traitsIcESaIcEEE8RegisterELb1EEEEEC1Ev>:
    4026:	f3 0f 1e fa          	endbr64 
    402a:	55                   	push   %rbp
    402b:	48 89 e5             	mov    %rsp,%rbp
    402e:	48 83 ec 10          	sub    $0x10,%rsp
    4032:	48 89 7d f8          	mov    %rdi,-0x8(%rbp)
    4036:	48 8b 45 f8          	mov    -0x8(%rbp),%rax
    403a:	48 89 c7             	mov    %rax,%rdi
    403d:	e8 50 07 00 00       	call   4792 <_ZNSt8__detail21_Hashtable_ebo_helperILi0ESaINS_10_Hash_nodeISt4pairIKNSt7__cxx1112basic_stringIcSt11char_traitsIcESaIcEEE8RegisterELb1EEEELb1EEC1Ev>
    4042:	90                   	nop
    4043:	c9                   	leave  
    4044:	c3                   	ret    
    4045:	90                   	nop

0000000000004046 <_ZNSt8__detail16_Hashtable_allocISaINS_10_Hash_nodeISt4pairIKNSt7__cxx1112basic_stringIcSt11char_traitsIcESaIcEEE8RegisterELb1EEEEED1Ev>:
    4046:	f3 0f 1e fa          	endbr64 
    404a:	55                   	push   %rbp
    404b:	48 89 e5             	mov    %rsp,%rbp
    404e:	48 83 ec 10          	sub    $0x10,%rsp
    4052:	48 89 7d f8          	mov    %rdi,-0x8(%rbp)
    4056:	48 8b 45 f8          	mov    -0x8(%rbp),%rax
    405a:	48 89 c7             	mov    %rax,%rdi
    405d:	e8 a4 ff ff ff       	call   4006 <_ZNSt8__detail21_Hashtable_ebo_helperILi0ESaINS_10_Hash_nodeISt4pairIKNSt7__cxx1112basic_stringIcSt11char_traitsIcESaIcEEE8RegisterELb1EEEELb1EED1Ev>
    4062:	90                   	nop
    4063:	c9                   	leave  
    4064:	c3                   	ret    
    4065:	90                   	nop

0000000000004066 <_ZNSt10_HashtableINSt7__cxx1112basic_stringIcSt11char_traitsIcESaIcEEESt4pairIKS5_8RegisterESaIS9_ENSt8__detail10_Select1stESt8equal_toIS5_ESt4hashIS5_ENSB_18_Mod_range_hashingENSB_20_Default_ranged_hashENSB_20_Prime_rehash_policyENSB_17_Hashtable_traitsILb1ELb0ELb1EEEEC1Ev>:
    4066:	f3 0f 1e fa          	endbr64 
    406a:	55                   	push   %rbp
    406b:	48 89 e5             	mov    %rsp,%rbp
    406e:	48 83 ec 10          	sub    $0x10,%rsp
    4072:	48 89 7d f8          	mov    %rdi,-0x8(%rbp)
    4076:	48 8b 45 f8          	mov    -0x8(%rbp),%rax
    407a:	48 89 c7             	mov    %rax,%rdi
    407d:	e8 58 ff ff ff       	call   3fda <_ZNSt8__detail15_Hashtable_baseINSt7__cxx1112basic_stringIcSt11char_traitsIcESaIcEEESt4pairIKS6_8RegisterENS_10_Select1stESt8equal_toIS6_ESt4hashIS6_ENS_18_Mod_range_hashingENS_20_Default_ranged_hashENS_17_Hashtable_traitsILb1ELb0ELb1EEEEC1Ev>
    4082:	48 8b 45 f8          	mov    -0x8(%rbp),%rax
    4086:	48 89 c7             	mov    %rax,%rdi
    4089:	e8 98 ff ff ff       	call   4026 <_ZNSt8__detail16_Hashtable_allocISaINS_10_Hash_nodeISt4pairIKNSt7__cxx1112basic_stringIcSt11char_traitsIcESaIcEEE8RegisterELb1EEEEEC1Ev>
    408e:	48 8b 45 f8          	mov    -0x8(%rbp),%rax
    4092:	48 8d 50 30          	lea    0x30(%rax),%rdx
    4096:	48 8b 45 f8          	mov    -0x8(%rbp),%rax
    409a:	48 89 10             	mov    %rdx,(%rax)
    409d:	48 8b 45 f8          	mov    -0x8(%rbp),%rax
    40a1:	48 c7 40 08 01 00 00 	movq   $0x1,0x8(%rax)
    40a8:	00 
    40a9:	48 8b 45 f8          	mov    -0x8(%rbp),%rax
    40ad:	48 83 c0 10          	add    $0x10,%rax
    40b1:	48 89 c7             	mov    %rax,%rdi
    40b4:	e8 df f9 ff ff       	call   3a98 <_ZNSt8__detail15_Hash_node_baseC1Ev>
    40b9:	48 8b 45 f8          	mov    -0x8(%rbp),%rax
    40bd:	48 c7 40 18 00 00 00 	movq   $0x0,0x18(%rax)
    40c4:	00 
    40c5:	48 8b 45 f8          	mov    -0x8(%rbp),%rax
    40c9:	48 8d 50 20          	lea    0x20(%rax),%rdx
    40cd:	8b 05 31 3f 01 00    	mov    0x13f31(%rip),%eax        # 18004 <_IO_stdin_used+0x4>
    40d3:	66 0f 6e c0          	movd   %eax,%xmm0
    40d7:	48 89 d7             	mov    %rdx,%rdi
    40da:	e8 f9 f9 ff ff       	call   3ad8 <_ZNSt8__detail20_Prime_rehash_policyC1Ef>
    40df:	48 8b 45 f8          	mov    -0x8(%rbp),%rax
    40e3:	48 c7 40 30 00 00 00 	movq   $0x0,0x30(%rax)
    40ea:	00 
    40eb:	90                   	nop
    40ec:	c9                   	leave  
    40ed:	c3                   	ret    

00000000000040ee <_ZNSt13unordered_mapINSt7__cxx1112basic_stringIcSt11char_traitsIcESaIcEEE8RegisterSt4hashIS5_ESt8equal_toIS5_ESaISt4pairIKS5_S6_EEEC1Ev>:
    40ee:	f3 0f 1e fa          	endbr64 
    40f2:	55                   	push   %rbp
    40f3:	48 89 e5             	mov    %rsp,%rbp
    40f6:	48 83 ec 10          	sub    $0x10,%rsp
    40fa:	48 89 7d f8          	mov    %rdi,-0x8(%rbp)
    40fe:	48 8b 45 f8          	mov    -0x8(%rbp),%rax
    4102:	48 89 c7             	mov    %rax,%rdi
    4105:	e8 5c ff ff ff       	call   4066 <_ZNSt10_HashtableINSt7__cxx1112basic_stringIcSt11char_traitsIcESaIcEEESt4pairIKS5_8RegisterESaIS9_ENSt8__detail10_Select1stESt8equal_toIS5_ESt4hashIS5_ENSB_18_Mod_range_hashingENSB_20_Default_ranged_hashENSB_20_Prime_rehash_policyENSB_17_Hashtable_traitsILb1ELb0ELb1EEEEC1Ev>
    410a:	90                   	nop
    410b:	c9                   	leave  
    410c:	c3                   	ret    
    410d:	90                   	nop

000000000000410e <_ZN20InstructionSchedulerD1Ev>:
    410e:	f3 0f 1e fa          	endbr64 
    4112:	55                   	push   %rbp
    4113:	48 89 e5             	mov    %rsp,%rbp
    4116:	48 83 ec 10          	sub    $0x10,%rsp
    411a:	48 89 7d f8          	mov    %rdi,-0x8(%rbp)
    411e:	48 8b 45 f8          	mov    -0x8(%rbp),%rax
    4122:	48 05 d8 00 00 00    	add    $0xd8,%rax
    4128:	48 89 c7             	mov    %rax,%rdi
    412b:	e8 b4 fd ff ff       	call   3ee4 <_ZNSt13unordered_mapINSt7__cxx1112basic_stringIcSt11char_traitsIcESaIcEEE12DInstructionSt4hashIS5_ESt8equal_toIS5_ESaISt4pairIKS5_S6_EEED1Ev>
    4130:	48 8b 45 f8          	mov    -0x8(%rbp),%rax
    4134:	48 05 a0 00 00 00    	add    $0xa0,%rax
    413a:	48 89 c7             	mov    %rax,%rdi
    413d:	e8 2e fc ff ff       	call   3d70 <_ZNSt13unordered_mapINSt7__cxx1112basic_stringIcSt11char_traitsIcESaIcEEEiSt4hashIS5_ESt8equal_toIS5_ESaISt4pairIKS5_iEEED1Ev>
    4142:	48 8b 45 f8          	mov    -0x8(%rbp),%rax
    4146:	48 83 c0 50          	add    $0x50,%rax
    414a:	48 89 c7             	mov    %rax,%rdi
    414d:	e8 aa fa ff ff       	call   3bfc <_ZNSt5queueI12DInstructionSt5dequeIS0_SaIS0_EEED1Ev>
    4152:	48 8b 45 f8          	mov    -0x8(%rbp),%rax
    4156:	48 83 c0 18          	add    $0x18,%rax
    415a:	48 89 c7             	mov    %rax,%rdi
    415d:	e8 7a fa ff ff       	call   3bdc <_ZNSt13unordered_mapINSt7__cxx1112basic_stringIcSt11char_traitsIcESaIcEEE8RegisterSt4hashIS5_ESt8equal_toIS5_ESaISt4pairIKS5_S6_EEED1Ev>
    4162:	48 8b 45 f8          	mov    -0x8(%rbp),%rax
    4166:	48 89 c7             	mov    %rax,%rdi
    4169:	e8 84 02 00 00       	call   43f2 <_ZNSt6vectorI12DInstructionSaIS0_EED1Ev>
    416e:	90                   	nop
    416f:	c9                   	leave  
    4170:	c3                   	ret    

0000000000004171 <_ZSt3maxImERKT_S2_S2_>:
    4171:	f3 0f 1e fa          	endbr64 
    4175:	55                   	push   %rbp
    4176:	48 89 e5             	mov    %rsp,%rbp
    4179:	48 89 7d f8          	mov    %rdi,-0x8(%rbp)
    417d:	48 89 75 f0          	mov    %rsi,-0x10(%rbp)
    4181:	48 8b 45 f8          	mov    -0x8(%rbp),%rax
    4185:	48 8b 10             	mov    (%rax),%rdx
    4188:	48 8b 45 f0          	mov    -0x10(%rbp),%rax
    418c:	48 8b 00             	mov    (%rax),%rax
    418f:	48 39 c2             	cmp    %rax,%rdx
    4192:	73 06                	jae    419a <_ZSt3maxImERKT_S2_S2_+0x29>
    4194:	48 8b 45 f0          	mov    -0x10(%rbp),%rax
    4198:	eb 04                	jmp    419e <_ZSt3maxImERKT_S2_S2_+0x2d>
    419a:	48 8b 45 f8          	mov    -0x8(%rbp),%rax
    419e:	5d                   	pop    %rbp
    419f:	c3                   	ret    

00000000000041a0 <_ZNSaINSt7__cxx1112basic_stringIcSt11char_traitsIcESaIcEEEED1Ev>:
    41a0:	f3 0f 1e fa          	endbr64 
    41a4:	55                   	push   %rbp
    41a5:	48 89 e5             	mov    %rsp,%rbp
    41a8:	48 83 ec 10          	sub    $0x10,%rsp
    41ac:	48 89 7d f8          	mov    %rdi,-0x8(%rbp)
    41b0:	48 8b 45 f8          	mov    -0x8(%rbp),%rax
    41b4:	48 89 c7             	mov    %rax,%rdi
    41b7:	e8 48 06 00 00       	call   4804 <_ZNSt15__new_allocatorINSt7__cxx1112basic_stringIcSt11char_traitsIcESaIcEEEED1Ev>
    41bc:	90                   	nop
    41bd:	c9                   	leave  
    41be:	c3                   	ret    
    41bf:	90                   	nop

00000000000041c0 <_ZNSt12_Vector_baseINSt7__cxx1112basic_stringIcSt11char_traitsIcESaIcEEESaIS5_EED1Ev>:
    41c0:	f3 0f 1e fa          	endbr64 
    41c4:	55                   	push   %rbp
    41c5:	48 89 e5             	mov    %rsp,%rbp
    41c8:	48 83 ec 10          	sub    $0x10,%rsp
    41cc:	48 89 7d f8          	mov    %rdi,-0x8(%rbp)
    41d0:	48 8b 45 f8          	mov    -0x8(%rbp),%rax
    41d4:	48 8b 50 10          	mov    0x10(%rax),%rdx
    41d8:	48 8b 45 f8          	mov    -0x8(%rbp),%rax
    41dc:	48 8b 00             	mov    (%rax),%rax
    41df:	48 29 c2             	sub    %rax,%rdx
    41e2:	48 89 d0             	mov    %rdx,%rax
    41e5:	48 c1 f8 05          	sar    $0x5,%rax
    41e9:	48 89 c2             	mov    %rax,%rdx
    41ec:	48 8b 45 f8          	mov    -0x8(%rbp),%rax
    41f0:	48 8b 08             	mov    (%rax),%rcx
    41f3:	48 8b 45 f8          	mov    -0x8(%rbp),%rax
    41f7:	48 89 ce             	mov    %rcx,%rsi
    41fa:	48 89 c7             	mov    %rax,%rdi
    41fd:	e8 12 06 00 00       	call   4814 <_ZNSt12_Vector_baseINSt7__cxx1112basic_stringIcSt11char_traitsIcESaIcEEESaIS5_EE13_M_deallocateEPS5_m>
    4202:	48 8b 45 f8          	mov    -0x8(%rbp),%rax
    4206:	48 89 c7             	mov    %rax,%rdi
    4209:	e8 f8 f8 ff ff       	call   3b06 <_ZNSt12_Vector_baseINSt7__cxx1112basic_stringIcSt11char_traitsIcESaIcEEESaIS5_EE12_Vector_implD1Ev>
    420e:	90                   	nop
    420f:	c9                   	leave  
    4210:	c3                   	ret    
    4211:	90                   	nop

0000000000004212 <_ZNSt6vectorINSt7__cxx1112basic_stringIcSt11char_traitsIcESaIcEEESaIS5_EED1Ev>:
    4212:	f3 0f 1e fa          	endbr64 
    4216:	55                   	push   %rbp
    4217:	48 89 e5             	mov    %rsp,%rbp
    421a:	48 83 ec 10          	sub    $0x10,%rsp
    421e:	48 89 7d f8          	mov    %rdi,-0x8(%rbp)
    4222:	48 8b 45 f8          	mov    -0x8(%rbp),%rax
    4226:	48 89 c7             	mov    %rax,%rdi
    4229:	e8 20 06 00 00       	call   484e <_ZNSt12_Vector_baseINSt7__cxx1112basic_stringIcSt11char_traitsIcESaIcEEESaIS5_EE19_M_get_Tp_allocatorEv>
    422e:	48 89 c2             	mov    %rax,%rdx
    4231:	48 8b 45 f8          	mov    -0x8(%rbp),%rax
    4235:	48 8b 48 08          	mov    0x8(%rax),%rcx
    4239:	48 8b 45 f8          	mov    -0x8(%rbp),%rax
    423d:	48 8b 00             	mov    (%rax),%rax
    4240:	48 89 ce             	mov    %rcx,%rsi
    4243:	48 89 c7             	mov    %rax,%rdi
    4246:	e8 15 06 00 00       	call   4860 <_ZSt8_DestroyIPNSt7__cxx1112basic_stringIcSt11char_traitsIcESaIcEEES5_EvT_S7_RSaIT0_E>
    424b:	48 8b 45 f8          	mov    -0x8(%rbp),%rax
    424f:	48 89 c7             	mov    %rax,%rdi
    4252:	e8 69 ff ff ff       	call   41c0 <_ZNSt12_Vector_baseINSt7__cxx1112basic_stringIcSt11char_traitsIcESaIcEEESaIS5_EED1Ev>
    4257:	90                   	nop
    4258:	c9                   	leave  
    4259:	c3                   	ret    

000000000000425a <_ZNSt8__detail21_Hashtable_ebo_helperILi1ESt4hashINSt7__cxx1112basic_stringIcSt11char_traitsIcESaIcEEEELb1EEC1Ev>:
    425a:	f3 0f 1e fa          	endbr64 
    425e:	55                   	push   %rbp
    425f:	48 89 e5             	mov    %rsp,%rbp
    4262:	48 89 7d f8          	mov    %rdi,-0x8(%rbp)
    4266:	90                   	nop
    4267:	5d                   	pop    %rbp
    4268:	c3                   	ret    
    4269:	90                   	nop

000000000000426a <_ZNSt8__detail21_Hashtable_ebo_helperILi0ESt8equal_toINSt7__cxx1112basic_stringIcSt11char_traitsIcESaIcEEEELb1EEC1Ev>:
    426a:	f3 0f 1e fa          	endbr64 
    426e:	55                   	push   %rbp
    426f:	48 89 e5             	mov    %rsp,%rbp
    4272:	48 89 7d f8          	mov    %rdi,-0x8(%rbp)
    4276:	90                   	nop
    4277:	5d                   	pop    %rbp
    4278:	c3                   	ret    
    4279:	90                   	nop

000000000000427a <_ZNSaINSt8__detail10_Hash_nodeISt4pairIKNSt7__cxx1112basic_stringIcSt11char_traitsIcESaIcEEES7_ELb1EEEED1Ev>:
    427a:	f3 0f 1e fa          	endbr64 
    427e:	55                   	push   %rbp
    427f:	48 89 e5             	mov    %rsp,%rbp
    4282:	48 83 ec 10          	sub    $0x10,%rsp
    4286:	48 89 7d f8          	mov    %rdi,-0x8(%rbp)
    428a:	48 8b 45 f8          	mov    -0x8(%rbp),%rax
    428e:	48 89 c7             	mov    %rax,%rdi
    4291:	e8 f8 05 00 00       	call   488e <_ZNSt15__new_allocatorINSt8__detail10_Hash_nodeISt4pairIKNSt7__cxx1112basic_stringIcSt11char_traitsIcESaIcEEES8_ELb1EEEED1Ev>
    4296:	90                   	nop
    4297:	c9                   	leave  
    4298:	c3                   	ret    
    4299:	90                   	nop

000000000000429a <_ZNSt10_HashtableINSt7__cxx1112basic_stringIcSt11char_traitsIcESaIcEEESt4pairIKS5_S5_ESaIS8_ENSt8__detail10_Select1stESt8equal_toIS5_ESt4hashIS5_ENSA_18_Mod_range_hashingENSA_20_Default_ranged_hashENSA_20_Prime_rehash_policyENSA_17_Hashtable_traitsILb1ELb0ELb1EEEED1Ev>:
    429a:	f3 0f 1e fa          	endbr64 
    429e:	55                   	push   %rbp
    429f:	48 89 e5             	mov    %rsp,%rbp
    42a2:	48 83 ec 10          	sub    $0x10,%rsp
    42a6:	48 89 7d f8          	mov    %rdi,-0x8(%rbp)
    42aa:	48 8b 45 f8          	mov    -0x8(%rbp),%rax
    42ae:	48 89 c7             	mov    %rax,%rdi
    42b1:	e8 e8 05 00 00       	call   489e <_ZNSt10_HashtableINSt7__cxx1112basic_stringIcSt11char_traitsIcESaIcEEESt4pairIKS5_S5_ESaIS8_ENSt8__detail10_Select1stESt8equal_toIS5_ESt4hashIS5_ENSA_18_Mod_range_hashingENSA_20_Default_ranged_hashENSA_20_Prime_rehash_policyENSA_17_Hashtable_traitsILb1ELb0ELb1EEEE5clearEv>
    42b6:	48 8b 45 f8          	mov    -0x8(%rbp),%rax
    42ba:	48 89 c7             	mov    %rax,%rdi
    42bd:	e8 4a 06 00 00       	call   490c <_ZNSt10_HashtableINSt7__cxx1112basic_stringIcSt11char_traitsIcESaIcEEESt4pairIKS5_S5_ESaIS8_ENSt8__detail10_Select1stESt8equal_toIS5_ESt4hashIS5_ENSA_18_Mod_range_hashingENSA_20_Default_ranged_hashENSA_20_Prime_rehash_policyENSA_17_Hashtable_traitsILb1ELb0ELb1EEEE21_M_deallocate_bucketsEv>
    42c2:	48 8b 45 f8          	mov    -0x8(%rbp),%rax
    42c6:	48 89 c7             	mov    %rax,%rdi
    42c9:	e8 78 f8 ff ff       	call   3b46 <_ZNSt8__detail16_Hashtable_allocISaINS_10_Hash_nodeISt4pairIKNSt7__cxx1112basic_stringIcSt11char_traitsIcESaIcEEES8_ELb1EEEEED1Ev>
    42ce:	90                   	nop
    42cf:	c9                   	leave  
    42d0:	c3                   	ret    
    42d1:	90                   	nop

00000000000042d2 <_ZNSt6vectorI12DInstructionSaIS0_EEC1ERKS2_>:
    42d2:	f3 0f 1e fa          	endbr64 
    42d6:	55                   	push   %rbp
    42d7:	48 89 e5             	mov    %rsp,%rbp
    42da:	41 55                	push   %r13
    42dc:	41 54                	push   %r12
    42de:	53                   	push   %rbx
    42df:	48 83 ec 28          	sub    $0x28,%rsp
    42e3:	48 89 7d c8          	mov    %rdi,-0x38(%rbp)
    42e7:	48 89 75 c0          	mov    %rsi,-0x40(%rbp)
    42eb:	64 48 8b 04 25 28 00 	mov    %fs:0x28,%rax
    42f2:	00 00 
    42f4:	48 89 45 d8          	mov    %rax,-0x28(%rbp)
    42f8:	31 c0                	xor    %eax,%eax
    42fa:	48 8b 5d c8          	mov    -0x38(%rbp),%rbx
    42fe:	48 8b 45 c0          	mov    -0x40(%rbp),%rax
    4302:	48 89 c7             	mov    %rax,%rdi
    4305:	e8 66 06 00 00       	call   4970 <_ZNKSt12_Vector_baseI12DInstructionSaIS0_EE19_M_get_Tp_allocatorEv>
    430a:	48 89 c2             	mov    %rax,%rdx
    430d:	48 8d 45 d7          	lea    -0x29(%rbp),%rax
    4311:	48 89 d6             	mov    %rdx,%rsi
    4314:	48 89 c7             	mov    %rax,%rdi
    4317:	e8 66 06 00 00       	call   4982 <_ZN9__gnu_cxx14__alloc_traitsISaI12DInstructionES1_E17_S_select_on_copyERKS2_>
    431c:	48 8b 45 c0          	mov    -0x40(%rbp),%rax
    4320:	48 89 c7             	mov    %rax,%rdi
    4323:	e8 16 06 00 00       	call   493e <_ZNKSt6vectorI12DInstructionSaIS0_EE4sizeEv>
    4328:	48 89 c1             	mov    %rax,%rcx
    432b:	48 8d 45 d7          	lea    -0x29(%rbp),%rax
    432f:	48 89 c2             	mov    %rax,%rdx
    4332:	48 89 ce             	mov    %rcx,%rsi
    4335:	48 89 df             	mov    %rbx,%rdi
    4338:	e8 d5 06 00 00       	call   4a12 <_ZNSt12_Vector_baseI12DInstructionSaIS0_EEC1EmRKS1_>
    433d:	48 8d 45 d7          	lea    -0x29(%rbp),%rax
    4341:	48 89 c7             	mov    %rax,%rdi
    4344:	e8 89 06 00 00       	call   49d2 <_ZNSaI12DInstructionED1Ev>
    4349:	48 8b 45 c8          	mov    -0x38(%rbp),%rax
    434d:	48 89 c7             	mov    %rax,%rdi
    4350:	e8 1b 08 00 00       	call   4b70 <_ZNSt12_Vector_baseI12DInstructionSaIS0_EE19_M_get_Tp_allocatorEv>
    4355:	49 89 c5             	mov    %rax,%r13
    4358:	48 8b 45 c8          	mov    -0x38(%rbp),%rax
    435c:	48 8b 18             	mov    (%rax),%rbx
    435f:	48 8b 45 c0          	mov    -0x40(%rbp),%rax
    4363:	48 89 c7             	mov    %rax,%rdi
    4366:	e8 b5 07 00 00       	call   4b20 <_ZNKSt6vectorI12DInstructionSaIS0_EE3endEv>
    436b:	49 89 c4             	mov    %rax,%r12
    436e:	48 8b 45 c0          	mov    -0x40(%rbp),%rax
    4372:	48 89 c7             	mov    %rax,%rdi
    4375:	e8 5a 07 00 00       	call   4ad4 <_ZNKSt6vectorI12DInstructionSaIS0_EE5beginEv>
    437a:	4c 89 e9             	mov    %r13,%rcx
    437d:	48 89 da             	mov    %rbx,%rdx
    4380:	4c 89 e6             	mov    %r12,%rsi
    4383:	48 89 c7             	mov    %rax,%rdi
    4386:	e8 f7 07 00 00       	call   4b82 <_ZSt22__uninitialized_copy_aIN9__gnu_cxx17__normal_iteratorIPK12DInstructionSt6vectorIS2_SaIS2_EEEEPS2_S2_ET0_T_SB_SA_RSaIT1_E>
    438b:	48 8b 55 c8          	mov    -0x38(%rbp),%rdx
    438f:	48 89 42 08          	mov    %rax,0x8(%rdx)
    4393:	90                   	nop
    4394:	48 8b 45 d8          	mov    -0x28(%rbp),%rax
    4398:	64 48 2b 04 25 28 00 	sub    %fs:0x28,%rax
    439f:	00 00 
    43a1:	74 43                	je     43e6 <_ZNSt6vectorI12DInstructionSaIS0_EEC1ERKS2_+0x114>
    43a3:	eb 3c                	jmp    43e1 <_ZNSt6vectorI12DInstructionSaIS0_EEC1ERKS2_+0x10f>
    43a5:	f3 0f 1e fa          	endbr64 
    43a9:	48 89 c3             	mov    %rax,%rbx
    43ac:	48 8d 45 d7          	lea    -0x29(%rbp),%rax
    43b0:	48 89 c7             	mov    %rax,%rdi
    43b3:	e8 1a 06 00 00       	call   49d2 <_ZNSaI12DInstructionED1Ev>
    43b8:	48 89 d8             	mov    %rbx,%rax
    43bb:	48 89 c7             	mov    %rax,%rdi
    43be:	e8 bd f3 ff ff       	call   3780 <_Unwind_Resume@plt>
    43c3:	f3 0f 1e fa          	endbr64 
    43c7:	48 89 c3             	mov    %rax,%rbx
    43ca:	48 8b 45 c8          	mov    -0x38(%rbp),%rax
    43ce:	48 89 c7             	mov    %rax,%rdi
    43d1:	e8 a2 06 00 00       	call   4a78 <_ZNSt12_Vector_baseI12DInstructionSaIS0_EED1Ev>
    43d6:	48 89 d8             	mov    %rbx,%rax
    43d9:	48 89 c7             	mov    %rax,%rdi
    43dc:	e8 9f f3 ff ff       	call   3780 <_Unwind_Resume@plt>
    43e1:	e8 8a f2 ff ff       	call   3670 <__stack_chk_fail@plt>
    43e6:	48 83 c4 28          	add    $0x28,%rsp
    43ea:	5b                   	pop    %rbx
    43eb:	41 5c                	pop    %r12
    43ed:	41 5d                	pop    %r13
    43ef:	5d                   	pop    %rbp
    43f0:	c3                   	ret    
    43f1:	90                   	nop

00000000000043f2 <_ZNSt6vectorI12DInstructionSaIS0_EED1Ev>:
    43f2:	f3 0f 1e fa          	endbr64 
    43f6:	55                   	push   %rbp
    43f7:	48 89 e5             	mov    %rsp,%rbp
    43fa:	48 83 ec 10          	sub    $0x10,%rsp
    43fe:	48 89 7d f8          	mov    %rdi,-0x8(%rbp)
    4402:	48 8b 45 f8          	mov    -0x8(%rbp),%rax
    4406:	48 89 c7             	mov    %rax,%rdi
    4409:	e8 62 07 00 00       	call   4b70 <_ZNSt12_Vector_baseI12DInstructionSaIS0_EE19_M_get_Tp_allocatorEv>
    440e:	48 89 c2             	mov    %rax,%rdx
    4411:	48 8b 45 f8          	mov    -0x8(%rbp),%rax
    4415:	48 8b 48 08          	mov    0x8(%rax),%rcx
    4419:	48 8b 45 f8          	mov    -0x8(%rbp),%rax
    441d:	48 8b 00             	mov    (%rax),%rax
    4420:	48 89 ce             	mov    %rcx,%rsi
    4423:	48 89 c7             	mov    %rax,%rdi
    4426:	e8 8c 07 00 00       	call   4bb7 <_ZSt8_DestroyIP12DInstructionS0_EvT_S2_RSaIT0_E>
    442b:	48 8b 45 f8          	mov    -0x8(%rbp),%rax
    442f:	48 89 c7             	mov    %rax,%rdi
    4432:	e8 41 06 00 00       	call   4a78 <_ZNSt12_Vector_baseI12DInstructionSaIS0_EED1Ev>
    4437:	90                   	nop
    4438:	c9                   	leave  
    4439:	c3                   	ret    

000000000000443a <_ZNSt10_HashtableINSt7__cxx1112basic_stringIcSt11char_traitsIcESaIcEEESt4pairIKS5_8RegisterESaIS9_ENSt8__detail10_Select1stESt8equal_toIS5_ESt4hashIS5_ENSB_18_Mod_range_hashingENSB_20_Default_ranged_hashENSB_20_Prime_rehash_policyENSB_17_Hashtable_traitsILb1ELb0ELb1EEEEC1ERKSM_>:
    443a:	f3 0f 1e fa          	endbr64 
    443e:	55                   	push   %rbp
    443f:	48 89 e5             	mov    %rsp,%rbp
    4442:	53                   	push   %rbx
    4443:	48 83 ec 28          	sub    $0x28,%rsp
    4447:	48 89 7d d8          	mov    %rdi,-0x28(%rbp)
    444b:	48 89 75 d0          	mov    %rsi,-0x30(%rbp)
    444f:	64 48 8b 04 25 28 00 	mov    %fs:0x28,%rax
    4456:	00 00 
    4458:	48 89 45 e8          	mov    %rax,-0x18(%rbp)
    445c:	31 c0                	xor    %eax,%eax
    445e:	48 8b 45 d0          	mov    -0x30(%rbp),%rax
    4462:	48 89 c7             	mov    %rax,%rdi
    4465:	e8 7c 07 00 00       	call   4be6 <_ZNKSt8__detail16_Hashtable_allocISaINS_10_Hash_nodeISt4pairIKNSt7__cxx1112basic_stringIcSt11char_traitsIcESaIcEEE8RegisterELb1EEEEE17_M_node_allocatorEv>
    446a:	48 89 c2             	mov    %rax,%rdx
    446d:	48 8d 45 e0          	lea    -0x20(%rbp),%rax
    4471:	48 89 d6             	mov    %rdx,%rsi
    4474:	48 89 c7             	mov    %rax,%rdi
    4477:	e8 88 07 00 00       	call   4c04 <_ZN9__gnu_cxx14__alloc_traitsISaINSt8__detail10_Hash_nodeISt4pairIKNSt7__cxx1112basic_stringIcSt11char_traitsIcESaIcEEE8RegisterELb1EEEESD_E17_S_select_on_copyERKSE_>
    447c:	48 8d 55 e0          	lea    -0x20(%rbp),%rdx
    4480:	48 8b 45 d8          	mov    -0x28(%rbp),%rax
    4484:	48 89 d6             	mov    %rdx,%rsi
    4487:	48 89 c7             	mov    %rax,%rdi
    448a:	e8 c5 07 00 00       	call   4c54 <_ZNSt8__detail16_Hashtable_allocISaINS_10_Hash_nodeISt4pairIKNSt7__cxx1112basic_stringIcSt11char_traitsIcESaIcEEE8RegisterELb1EEEEEC1ISD_EEOT_>
    448f:	48 8d 45 e0          	lea    -0x20(%rbp),%rax
    4493:	48 89 c7             	mov    %rax,%rdi
    4496:	e8 17 03 00 00       	call   47b2 <_ZNSaINSt8__detail10_Hash_nodeISt4pairIKNSt7__cxx1112basic_stringIcSt11char_traitsIcESaIcEEE8RegisterELb1EEEED1Ev>
    449b:	48 8b 45 d8          	mov    -0x28(%rbp),%rax
    449f:	48 c7 00 00 00 00 00 	movq   $0x0,(%rax)
    44a6:	48 8b 45 d0          	mov    -0x30(%rbp),%rax
    44aa:	48 8b 50 08          	mov    0x8(%rax),%rdx
    44ae:	48 8b 45 d8          	mov    -0x28(%rbp),%rax
    44b2:	48 89 50 08          	mov    %rdx,0x8(%rax)
    44b6:	48 8b 45 d8          	mov    -0x28(%rbp),%rax
    44ba:	48 83 c0 10          	add    $0x10,%rax
    44be:	48 89 c7             	mov    %rax,%rdi
    44c1:	e8 d2 f5 ff ff       	call   3a98 <_ZNSt8__detail15_Hash_node_baseC1Ev>
    44c6:	48 8b 45 d0          	mov    -0x30(%rbp),%rax
    44ca:	48 8b 50 18          	mov    0x18(%rax),%rdx
    44ce:	48 8b 45 d8          	mov    -0x28(%rbp),%rax
    44d2:	48 89 50 18          	mov    %rdx,0x18(%rax)
    44d6:	48 8b 4d d8          	mov    -0x28(%rbp),%rcx
    44da:	48 8b 45 d0          	mov    -0x30(%rbp),%rax
    44de:	48 8b 50 28          	mov    0x28(%rax),%rdx
    44e2:	48 8b 40 20          	mov    0x20(%rax),%rax
    44e6:	48 89 41 20          	mov    %rax,0x20(%rcx)
    44ea:	48 89 51 28          	mov    %rdx,0x28(%rcx)
    44ee:	48 8b 45 d8          	mov    -0x28(%rbp),%rax
    44f2:	48 c7 40 30 00 00 00 	movq   $0x0,0x30(%rax)
    44f9:	00 
    44fa:	48 8b 55 d8          	mov    -0x28(%rbp),%rdx
    44fe:	48 8d 45 e0          	lea    -0x20(%rbp),%rax
    4502:	48 89 d6             	mov    %rdx,%rsi
    4505:	48 89 c7             	mov    %rax,%rdi
    4508:	e8 7d 07 00 00       	call   4c8a <_ZNSt8__detail10_AllocNodeISaINS_10_Hash_nodeISt4pairIKNSt7__cxx1112basic_stringIcSt11char_traitsIcESaIcEEE8RegisterELb1EEEEEC1ERNS_16_Hashtable_allocISD_EE>
    450d:	48 8d 55 e0          	lea    -0x20(%rbp),%rdx
    4511:	48 8b 4d d0          	mov    -0x30(%rbp),%rcx
    4515:	48 8b 45 d8          	mov    -0x28(%rbp),%rax
    4519:	48 89 ce             	mov    %rcx,%rsi
    451c:	48 89 c7             	mov    %rax,%rdi
    451f:	e8 84 07 00 00       	call   4ca8 <_ZNSt10_HashtableINSt7__cxx1112basic_stringIcSt11char_traitsIcESaIcEEESt4pairIKS5_8RegisterESaIS9_ENSt8__detail10_Select1stESt8equal_toIS5_ESt4hashIS5_ENSB_18_Mod_range_hashingENSB_20_Default_ranged_hashENSB_20_Prime_rehash_policyENSB_17_Hashtable_traitsILb1ELb0ELb1EEEE9_M_assignIRKSM_NSB_10_AllocNodeISaINSB_10_Hash_nodeIS9_Lb1EEEEEEEEvOT_RKT0_>
    4524:	eb 3c                	jmp    4562 <_ZNSt10_HashtableINSt7__cxx1112basic_stringIcSt11char_traitsIcESaIcEEESt4pairIKS5_8RegisterESaIS9_ENSt8__detail10_Select1stESt8equal_toIS5_ESt4hashIS5_ENSB_18_Mod_range_hashingENSB_20_Default_ranged_hashENSB_20_Prime_rehash_policyENSB_17_Hashtable_traitsILb1ELb0ELb1EEEEC1ERKSM_+0x128>
    4526:	f3 0f 1e fa          	endbr64 
    452a:	48 89 c3             	mov    %rax,%rbx
    452d:	48 8d 45 e0          	lea    -0x20(%rbp),%rax
    4531:	48 89 c7             	mov    %rax,%rdi
    4534:	e8 79 02 00 00       	call   47b2 <_ZNSaINSt8__detail10_Hash_nodeISt4pairIKNSt7__cxx1112basic_stringIcSt11char_traitsIcESaIcEEE8RegisterELb1EEEED1Ev>
    4539:	48 89 d8             	mov    %rbx,%rax
    453c:	48 89 c7             	mov    %rax,%rdi
    453f:	e8 3c f2 ff ff       	call   3780 <_Unwind_Resume@plt>
    4544:	f3 0f 1e fa          	endbr64 
    4548:	48 89 c3             	mov    %rax,%rbx
    454b:	48 8b 45 d8          	mov    -0x28(%rbp),%rax
    454f:	48 89 c7             	mov    %rax,%rdi
    4552:	e8 ef fa ff ff       	call   4046 <_ZNSt8__detail16_Hashtable_allocISaINS_10_Hash_nodeISt4pairIKNSt7__cxx1112basic_stringIcSt11char_traitsIcESaIcEEE8RegisterELb1EEEEED1Ev>
    4557:	48 89 d8             	mov    %rbx,%rax
    455a:	48 89 c7             	mov    %rax,%rdi
    455d:	e8 1e f2 ff ff       	call   3780 <_Unwind_Resume@plt>
    4562:	48 8b 45 e8          	mov    -0x18(%rbp),%rax
    4566:	64 48 2b 04 25 28 00 	sub    %fs:0x28,%rax
    456d:	00 00 
    456f:	74 05                	je     4576 <_ZNSt10_HashtableINSt7__cxx1112basic_stringIcSt11char_traitsIcESaIcEEESt4pairIKS5_8RegisterESaIS9_ENSt8__detail10_Select1stESt8equal_toIS5_ESt4hashIS5_ENSB_18_Mod_range_hashingENSB_20_Default_ranged_hashENSB_20_Prime_rehash_policyENSB_17_Hashtable_traitsILb1ELb0ELb1EEEEC1ERKSM_+0x13c>
    4571:	e8 fa f0 ff ff       	call   3670 <__stack_chk_fail@plt>
    4576:	48 8b 5d f8          	mov    -0x8(%rbp),%rbx
    457a:	c9                   	leave  
    457b:	c3                   	ret    

000000000000457c <_ZNSt10_HashtableINSt7__cxx1112basic_stringIcSt11char_traitsIcESaIcEEESt4pairIKS5_8RegisterESaIS9_ENSt8__detail10_Select1stESt8equal_toIS5_ESt4hashIS5_ENSB_18_Mod_range_hashingENSB_20_Default_ranged_hashENSB_20_Prime_rehash_policyENSB_17_Hashtable_traitsILb1ELb0ELb1EEEED1Ev>:
    457c:	f3 0f 1e fa          	endbr64 
    4580:	55                   	push   %rbp
    4581:	48 89 e5             	mov    %rsp,%rbp
    4584:	48 83 ec 10          	sub    $0x10,%rsp
    4588:	48 89 7d f8          	mov    %rdi,-0x8(%rbp)
    458c:	48 8b 45 f8          	mov    -0x8(%rbp),%rax
    4590:	48 89 c7             	mov    %rax,%rdi
    4593:	e8 1a 09 00 00       	call   4eb2 <_ZNSt10_HashtableINSt7__cxx1112basic_stringIcSt11char_traitsIcESaIcEEESt4pairIKS5_8RegisterESaIS9_ENSt8__detail10_Select1stESt8equal_toIS5_ESt4hashIS5_ENSB_18_Mod_range_hashingENSB_20_Default_ranged_hashENSB_20_Prime_rehash_policyENSB_17_Hashtable_traitsILb1ELb0ELb1EEEE5clearEv>
    4598:	48 8b 45 f8          	mov    -0x8(%rbp),%rax
    459c:	48 89 c7             	mov    %rax,%rdi
    459f:	e8 7c 09 00 00       	call   4f20 <_ZNSt10_HashtableINSt7__cxx1112basic_stringIcSt11char_traitsIcESaIcEEESt4pairIKS5_8RegisterESaIS9_ENSt8__detail10_Select1stESt8equal_toIS5_ESt4hashIS5_ENSB_18_Mod_range_hashingENSB_20_Default_ranged_hashENSB_20_Prime_rehash_policyENSB_17_Hashtable_traitsILb1ELb0ELb1EEEE21_M_deallocate_bucketsEv>
    45a4:	48 8b 45 f8          	mov    -0x8(%rbp),%rax
    45a8:	48 89 c7             	mov    %rax,%rdi
    45ab:	e8 96 fa ff ff       	call   4046 <_ZNSt8__detail16_Hashtable_allocISaINS_10_Hash_nodeISt4pairIKNSt7__cxx1112basic_stringIcSt11char_traitsIcESaIcEEE8RegisterELb1EEEEED1Ev>
    45b0:	90                   	nop
    45b1:	c9                   	leave  
    45b2:	c3                   	ret    
    45b3:	90                   	nop

00000000000045b4 <_ZNSt5dequeI12DInstructionSaIS0_EEC1Ev>:
    45b4:	f3 0f 1e fa          	endbr64 
    45b8:	55                   	push   %rbp
    45b9:	48 89 e5             	mov    %rsp,%rbp
    45bc:	48 83 ec 10          	sub    $0x10,%rsp
    45c0:	48 89 7d f8          	mov    %rdi,-0x8(%rbp)
    45c4:	48 8b 45 f8          	mov    -0x8(%rbp),%rax
    45c8:	48 89 c7             	mov    %rax,%rdi
    45cb:	e8 a2 09 00 00       	call   4f72 <_ZNSt11_Deque_baseI12DInstructionSaIS0_EEC1Ev>
    45d0:	90                   	nop
    45d1:	c9                   	leave  
    45d2:	c3                   	ret    
    45d3:	90                   	nop

00000000000045d4 <_ZNSt5queueI12DInstructionSt5dequeIS0_SaIS0_EEEC1IS3_vEEv>:
    45d4:	f3 0f 1e fa          	endbr64 
    45d8:	55                   	push   %rbp
    45d9:	48 89 e5             	mov    %rsp,%rbp
    45dc:	48 83 ec 10          	sub    $0x10,%rsp
    45e0:	48 89 7d f8          	mov    %rdi,-0x8(%rbp)
    45e4:	48 8b 45 f8          	mov    -0x8(%rbp),%rax
    45e8:	66 0f ef c0          	pxor   %xmm0,%xmm0
    45ec:	0f 11 00             	movups %xmm0,(%rax)
    45ef:	0f 11 40 10          	movups %xmm0,0x10(%rax)
    45f3:	0f 11 40 20          	movups %xmm0,0x20(%rax)
    45f7:	0f 11 40 30          	movups %xmm0,0x30(%rax)
    45fb:	0f 11 40 40          	movups %xmm0,0x40(%rax)
    45ff:	48 8b 45 f8          	mov    -0x8(%rbp),%rax
    4603:	48 89 c7             	mov    %rax,%rdi
    4606:	e8 a9 ff ff ff       	call   45b4 <_ZNSt5dequeI12DInstructionSaIS0_EEC1Ev>
    460b:	90                   	nop
    460c:	c9                   	leave  
    460d:	c3                   	ret    

000000000000460e <_ZNSt5dequeI12DInstructionSaIS0_EED1Ev>:
    460e:	f3 0f 1e fa          	endbr64 
    4612:	55                   	push   %rbp
    4613:	48 89 e5             	mov    %rsp,%rbp
    4616:	53                   	push   %rbx
    4617:	48 83 ec 68          	sub    $0x68,%rsp
    461b:	48 89 7d 98          	mov    %rdi,-0x68(%rbp)
    461f:	64 48 8b 04 25 28 00 	mov    %fs:0x28,%rax
    4626:	00 00 
    4628:	48 89 45 e8          	mov    %rax,-0x18(%rbp)
    462c:	31 c0                	xor    %eax,%eax
    462e:	48 8b 45 98          	mov    -0x68(%rbp),%rax
    4632:	48 89 c7             	mov    %rax,%rdi
    4635:	e8 5c 0a 00 00       	call   5096 <_ZNSt11_Deque_baseI12DInstructionSaIS0_EE19_M_get_Tp_allocatorEv>
    463a:	48 89 c3             	mov    %rax,%rbx
    463d:	48 8d 45 c0          	lea    -0x40(%rbp),%rax
    4641:	48 8b 55 98          	mov    -0x68(%rbp),%rdx
    4645:	48 89 d6             	mov    %rdx,%rsi
    4648:	48 89 c7             	mov    %rax,%rdi
    464b:	e8 14 0a 00 00       	call   5064 <_ZNSt5dequeI12DInstructionSaIS0_EE3endEv>
    4650:	48 8d 45 a0          	lea    -0x60(%rbp),%rax
    4654:	48 8b 55 98          	mov    -0x68(%rbp),%rdx
    4658:	48 89 d6             	mov    %rdx,%rsi
    465b:	48 89 c7             	mov    %rax,%rdi
    465e:	e8 cf 09 00 00       	call   5032 <_ZNSt5dequeI12DInstructionSaIS0_EE5beginEv>
    4663:	48 8d 55 c0          	lea    -0x40(%rbp),%rdx
    4667:	48 8d 75 a0          	lea    -0x60(%rbp),%rsi
    466b:	48 8b 45 98          	mov    -0x68(%rbp),%rax
    466f:	48 89 d9             	mov    %rbx,%rcx
    4672:	48 89 c7             	mov    %rax,%rdi
    4675:	e8 2e 0a 00 00       	call   50a8 <_ZNSt5dequeI12DInstructionSaIS0_EE15_M_destroy_dataESt15_Deque_iteratorIS0_RS0_PS0_ES6_RKS1_>
    467a:	48 8b 45 98          	mov    -0x68(%rbp),%rax
    467e:	48 89 c7             	mov    %rax,%rdi
    4681:	e8 40 09 00 00       	call   4fc6 <_ZNSt11_Deque_baseI12DInstructionSaIS0_EED1Ev>
    4686:	90                   	nop
    4687:	48 8b 45 e8          	mov    -0x18(%rbp),%rax
    468b:	64 48 2b 04 25 28 00 	sub    %fs:0x28,%rax
    4692:	00 00 
    4694:	74 05                	je     469b <_ZNSt5dequeI12DInstructionSaIS0_EED1Ev+0x8d>
    4696:	e8 d5 ef ff ff       	call   3670 <__stack_chk_fail@plt>
    469b:	48 8b 5d f8          	mov    -0x8(%rbp),%rbx
    469f:	c9                   	leave  
    46a0:	c3                   	ret    
    46a1:	90                   	nop

00000000000046a2 <_ZNSt8__detail21_Hashtable_ebo_helperILi0ESaINS_10_Hash_nodeISt4pairIKNSt7__cxx1112basic_stringIcSt11char_traitsIcESaIcEEEiELb1EEEELb1EEC1Ev>:
    46a2:	f3 0f 1e fa          	endbr64 
    46a6:	55                   	push   %rbp
    46a7:	48 89 e5             	mov    %rsp,%rbp
    46aa:	48 83 ec 10          	sub    $0x10,%rsp
    46ae:	48 89 7d f8          	mov    %rdi,-0x8(%rbp)
    46b2:	48 8b 45 f8          	mov    -0x8(%rbp),%rax
    46b6:	48 89 c7             	mov    %rax,%rdi
    46b9:	e8 6a 0a 00 00       	call   5128 <_ZNSaINSt8__detail10_Hash_nodeISt4pairIKNSt7__cxx1112basic_stringIcSt11char_traitsIcESaIcEEEiELb1EEEEC1Ev>
    46be:	90                   	nop
    46bf:	c9                   	leave  
    46c0:	c3                   	ret    
    46c1:	90                   	nop

00000000000046c2 <_ZNSaINSt8__detail10_Hash_nodeISt4pairIKNSt7__cxx1112basic_stringIcSt11char_traitsIcESaIcEEEiELb1EEEED1Ev>:
    46c2:	f3 0f 1e fa          	endbr64 
    46c6:	55                   	push   %rbp
    46c7:	48 89 e5             	mov    %rsp,%rbp
    46ca:	48 83 ec 10          	sub    $0x10,%rsp
    46ce:	48 89 7d f8          	mov    %rdi,-0x8(%rbp)
    46d2:	48 8b 45 f8          	mov    -0x8(%rbp),%rax
    46d6:	48 89 c7             	mov    %rax,%rdi
    46d9:	e8 6a 0a 00 00       	call   5148 <_ZNSt15__new_allocatorINSt8__detail10_Hash_nodeISt4pairIKNSt7__cxx1112basic_stringIcSt11char_traitsIcESaIcEEEiELb1EEEED1Ev>
    46de:	90                   	nop
    46df:	c9                   	leave  
    46e0:	c3                   	ret    
    46e1:	90                   	nop

00000000000046e2 <_ZNSt10_HashtableINSt7__cxx1112basic_stringIcSt11char_traitsIcESaIcEEESt4pairIKS5_iESaIS8_ENSt8__detail10_Select1stESt8equal_toIS5_ESt4hashIS5_ENSA_18_Mod_range_hashingENSA_20_Default_ranged_hashENSA_20_Prime_rehash_policyENSA_17_Hashtable_traitsILb1ELb0ELb1EEEED1Ev>:
    46e2:	f3 0f 1e fa          	endbr64 
    46e6:	55                   	push   %rbp
    46e7:	48 89 e5             	mov    %rsp,%rbp
    46ea:	48 83 ec 10          	sub    $0x10,%rsp
    46ee:	48 89 7d f8          	mov    %rdi,-0x8(%rbp)
    46f2:	48 8b 45 f8          	mov    -0x8(%rbp),%rax
    46f6:	48 89 c7             	mov    %rax,%rdi
    46f9:	e8 5a 0a 00 00       	call   5158 <_ZNSt10_HashtableINSt7__cxx1112basic_stringIcSt11char_traitsIcESaIcEEESt4pairIKS5_iESaIS8_ENSt8__detail10_Select1stESt8equal_toIS5_ESt4hashIS5_ENSA_18_Mod_range_hashingENSA_20_Default_ranged_hashENSA_20_Prime_rehash_policyENSA_17_Hashtable_traitsILb1ELb0ELb1EEEE5clearEv>
    46fe:	48 8b 45 f8          	mov    -0x8(%rbp),%rax
    4702:	48 89 c7             	mov    %rax,%rdi
    4705:	e8 bc 0a 00 00       	call   51c6 <_ZNSt10_HashtableINSt7__cxx1112basic_stringIcSt11char_traitsIcESaIcEEESt4pairIKS5_iESaIS8_ENSt8__detail10_Select1stESt8equal_toIS5_ESt4hashIS5_ENSA_18_Mod_range_hashingENSA_20_Default_ranged_hashENSA_20_Prime_rehash_policyENSA_17_Hashtable_traitsILb1ELb0ELb1EEEE21_M_deallocate_bucketsEv>
    470a:	48 8b 45 f8          	mov    -0x8(%rbp),%rax
    470e:	48 89 c7             	mov    %rax,%rdi
    4711:	e8 92 f5 ff ff       	call   3ca8 <_ZNSt8__detail16_Hashtable_allocISaINS_10_Hash_nodeISt4pairIKNSt7__cxx1112basic_stringIcSt11char_traitsIcESaIcEEEiELb1EEEEED1Ev>
    4716:	90                   	nop
    4717:	c9                   	leave  
    4718:	c3                   	ret    
    4719:	90                   	nop

000000000000471a <_ZNSt8__detail21_Hashtable_ebo_helperILi0ESaINS_10_Hash_nodeISt4pairIKNSt7__cxx1112basic_stringIcSt11char_traitsIcESaIcEEE12DInstructionELb1EEEELb1EEC1Ev>:
    471a:	f3 0f 1e fa          	endbr64 
    471e:	55                   	push   %rbp
    471f:	48 89 e5             	mov    %rsp,%rbp
    4722:	48 83 ec 10          	sub    $0x10,%rsp
    4726:	48 89 7d f8          	mov    %rdi,-0x8(%rbp)
    472a:	48 8b 45 f8          	mov    -0x8(%rbp),%rax
    472e:	48 89 c7             	mov    %rax,%rdi
    4731:	e8 c2 0a 00 00       	call   51f8 <_ZNSaINSt8__detail10_Hash_nodeISt4pairIKNSt7__cxx1112basic_stringIcSt11char_traitsIcESaIcEEE12DInstructionELb1EEEEC1Ev>
    4736:	90                   	nop
    4737:	c9                   	leave  
    4738:	c3                   	ret    
    4739:	90                   	nop

000000000000473a <_ZNSaINSt8__detail10_Hash_nodeISt4pairIKNSt7__cxx1112basic_stringIcSt11char_traitsIcESaIcEEE12DInstructionELb1EEEED1Ev>:
    473a:	f3 0f 1e fa          	endbr64 
    473e:	55                   	push   %rbp
    473f:	48 89 e5             	mov    %rsp,%rbp
    4742:	48 83 ec 10          	sub    $0x10,%rsp
    4746:	48 89 7d f8          	mov    %rdi,-0x8(%rbp)
    474a:	48 8b 45 f8          	mov    -0x8(%rbp),%rax
    474e:	48 89 c7             	mov    %rax,%rdi
    4751:	e8 c2 0a 00 00       	call   5218 <_ZNSt15__new_allocatorINSt8__detail10_Hash_nodeISt4pairIKNSt7__cxx1112basic_stringIcSt11char_traitsIcESaIcEEE12DInstructionELb1EEEED1Ev>
    4756:	90                   	nop
    4757:	c9                   	leave  
    4758:	c3                   	ret    
    4759:	90                   	nop

000000000000475a <_ZNSt10_HashtableINSt7__cxx1112basic_stringIcSt11char_traitsIcESaIcEEESt4pairIKS5_12DInstructionESaIS9_ENSt8__detail10_Select1stESt8equal_toIS5_ESt4hashIS5_ENSB_18_Mod_range_hashingENSB_20_Default_ranged_hashENSB_20_Prime_rehash_policyENSB_17_Hashtable_traitsILb1ELb0ELb1EEEED1Ev>:
    475a:	f3 0f 1e fa          	endbr64 
    475e:	55                   	push   %rbp
    475f:	48 89 e5             	mov    %rsp,%rbp
    4762:	48 83 ec 10          	sub    $0x10,%rsp
    4766:	48 89 7d f8          	mov    %rdi,-0x8(%rbp)
    476a:	48 8b 45 f8          	mov    -0x8(%rbp),%rax
    476e:	48 89 c7             	mov    %rax,%rdi
    4771:	e8 b2 0a 00 00       	call   5228 <_ZNSt10_HashtableINSt7__cxx1112basic_stringIcSt11char_traitsIcESaIcEEESt4pairIKS5_12DInstructionESaIS9_ENSt8__detail10_Select1stESt8equal_toIS5_ESt4hashIS5_ENSB_18_Mod_range_hashingENSB_20_Default_ranged_hashENSB_20_Prime_rehash_policyENSB_17_Hashtable_traitsILb1ELb0ELb1EEEE5clearEv>
    4776:	48 8b 45 f8          	mov    -0x8(%rbp),%rax
    477a:	48 89 c7             	mov    %rax,%rdi
    477d:	e8 14 0b 00 00       	call   5296 <_ZNSt10_HashtableINSt7__cxx1112basic_stringIcSt11char_traitsIcESaIcEEESt4pairIKS5_12DInstructionESaIS9_ENSt8__detail10_Select1stESt8equal_toIS5_ESt4hashIS5_ENSB_18_Mod_range_hashingENSB_20_Default_ranged_hashENSB_20_Prime_rehash_policyENSB_17_Hashtable_traitsILb1ELb0ELb1EEEE21_M_deallocate_bucketsEv>
    4782:	48 8b 45 f8          	mov    -0x8(%rbp),%rax
    4786:	48 89 c7             	mov    %rax,%rdi
    4789:	e8 8e f6 ff ff       	call   3e1c <_ZNSt8__detail16_Hashtable_allocISaINS_10_Hash_nodeISt4pairIKNSt7__cxx1112basic_stringIcSt11char_traitsIcESaIcEEE12DInstructionELb1EEEEED1Ev>
    478e:	90                   	nop
    478f:	c9                   	leave  
    4790:	c3                   	ret    
    4791:	90                   	nop

0000000000004792 <_ZNSt8__detail21_Hashtable_ebo_helperILi0ESaINS_10_Hash_nodeISt4pairIKNSt7__cxx1112basic_stringIcSt11char_traitsIcESaIcEEE8RegisterELb1EEEELb1EEC1Ev>:
    4792:	f3 0f 1e fa          	endbr64 
    4796:	55                   	push   %rbp
    4797:	48 89 e5             	mov    %rsp,%rbp
    479a:	48 83 ec 10          	sub    $0x10,%rsp
    479e:	48 89 7d f8          	mov    %rdi,-0x8(%rbp)
    47a2:	48 8b 45 f8          	mov    -0x8(%rbp),%rax
    47a6:	48 89 c7             	mov    %rax,%rdi
    47a9:	e8 1a 0b 00 00       	call   52c8 <_ZNSaINSt8__detail10_Hash_nodeISt4pairIKNSt7__cxx1112basic_stringIcSt11char_traitsIcESaIcEEE8RegisterELb1EEEEC1Ev>
    47ae:	90                   	nop
    47af:	c9                   	leave  
    47b0:	c3                   	ret    
    47b1:	90                   	nop

00000000000047b2 <_ZNSaINSt8__detail10_Hash_nodeISt4pairIKNSt7__cxx1112basic_stringIcSt11char_traitsIcESaIcEEE8RegisterELb1EEEED1Ev>:
    47b2:	f3 0f 1e fa          	endbr64 
    47b6:	55                   	push   %rbp
    47b7:	48 89 e5             	mov    %rsp,%rbp
    47ba:	48 83 ec 10          	sub    $0x10,%rsp
    47be:	48 89 7d f8          	mov    %rdi,-0x8(%rbp)
    47c2:	48 8b 45 f8          	mov    -0x8(%rbp),%rax
    47c6:	48 89 c7             	mov    %rax,%rdi
    47c9:	e8 1a 0b 00 00       	call   52e8 <_ZNSt15__new_allocatorINSt8__detail10_Hash_nodeISt4pairIKNSt7__cxx1112basic_stringIcSt11char_traitsIcESaIcEEE8RegisterELb1EEEED1Ev>
    47ce:	90                   	nop
    47cf:	c9                   	leave  
    47d0:	c3                   	ret    
    47d1:	90                   	nop

00000000000047d2 <_ZNSt12_Vector_baseINSt7__cxx1112basic_stringIcSt11char_traitsIcESaIcEEESaIS5_EE17_Vector_impl_dataC1Ev>:
    47d2:	f3 0f 1e fa          	endbr64 
    47d6:	55                   	push   %rbp
    47d7:	48 89 e5             	mov    %rsp,%rbp
    47da:	48 89 7d f8          	mov    %rdi,-0x8(%rbp)
    47de:	48 8b 45 f8          	mov    -0x8(%rbp),%rax
    47e2:	48 c7 00 00 00 00 00 	movq   $0x0,(%rax)
    47e9:	48 8b 45 f8          	mov    -0x8(%rbp),%rax
    47ed:	48 c7 40 08 00 00 00 	movq   $0x0,0x8(%rax)
    47f4:	00 
    47f5:	48 8b 45 f8          	mov    -0x8(%rbp),%rax
    47f9:	48 c7 40 10 00 00 00 	movq   $0x0,0x10(%rax)
    4800:	00 
    4801:	90                   	nop
    4802:	5d                   	pop    %rbp
    4803:	c3                   	ret    

0000000000004804 <_ZNSt15__new_allocatorINSt7__cxx1112basic_stringIcSt11char_traitsIcESaIcEEEED1Ev>:
    4804:	f3 0f 1e fa          	endbr64 
    4808:	55                   	push   %rbp
    4809:	48 89 e5             	mov    %rsp,%rbp
    480c:	48 89 7d f8          	mov    %rdi,-0x8(%rbp)
    4810:	90                   	nop
    4811:	5d                   	pop    %rbp
    4812:	c3                   	ret    
    4813:	90                   	nop

0000000000004814 <_ZNSt12_Vector_baseINSt7__cxx1112basic_stringIcSt11char_traitsIcESaIcEEESaIS5_EE13_M_deallocateEPS5_m>:
    4814:	f3 0f 1e fa          	endbr64 
    4818:	55                   	push   %rbp
    4819:	48 89 e5             	mov    %rsp,%rbp
    481c:	48 83 ec 20          	sub    $0x20,%rsp
    4820:	48 89 7d f8          	mov    %rdi,-0x8(%rbp)
    4824:	48 89 75 f0          	mov    %rsi,-0x10(%rbp)
    4828:	48 89 55 e8          	mov    %rdx,-0x18(%rbp)
    482c:	48 83 7d f0 00       	cmpq   $0x0,-0x10(%rbp)
    4831:	74 17                	je     484a <_ZNSt12_Vector_baseINSt7__cxx1112basic_stringIcSt11char_traitsIcESaIcEEESaIS5_EE13_M_deallocateEPS5_m+0x36>
    4833:	48 8b 45 f8          	mov    -0x8(%rbp),%rax
    4837:	48 8b 55 e8          	mov    -0x18(%rbp),%rdx
    483b:	48 8b 4d f0          	mov    -0x10(%rbp),%rcx
    483f:	48 89 ce             	mov    %rcx,%rsi
    4842:	48 89 c7             	mov    %rax,%rdi
    4845:	e8 ad 0a 00 00       	call   52f7 <_ZNSt16allocator_traitsISaINSt7__cxx1112basic_stringIcSt11char_traitsIcESaIcEEEEE10deallocateERS6_PS5_m>
    484a:	90                   	nop
    484b:	c9                   	leave  
    484c:	c3                   	ret    
    484d:	90                   	nop

000000000000484e <_ZNSt12_Vector_baseINSt7__cxx1112basic_stringIcSt11char_traitsIcESaIcEEESaIS5_EE19_M_get_Tp_allocatorEv>:
    484e:	f3 0f 1e fa          	endbr64 
    4852:	55                   	push   %rbp
    4853:	48 89 e5             	mov    %rsp,%rbp
    4856:	48 89 7d f8          	mov    %rdi,-0x8(%rbp)
    485a:	48 8b 45 f8          	mov    -0x8(%rbp),%rax
    485e:	5d                   	pop    %rbp
    485f:	c3                   	ret    

0000000000004860 <_ZSt8_DestroyIPNSt7__cxx1112basic_stringIcSt11char_traitsIcESaIcEEES5_EvT_S7_RSaIT0_E>:
    4860:	f3 0f 1e fa          	endbr64 
    4864:	55                   	push   %rbp
    4865:	48 89 e5             	mov    %rsp,%rbp
    4868:	48 83 ec 20          	sub    $0x20,%rsp
    486c:	48 89 7d f8          	mov    %rdi,-0x8(%rbp)
    4870:	48 89 75 f0          	mov    %rsi,-0x10(%rbp)
    4874:	48 89 55 e8          	mov    %rdx,-0x18(%rbp)
    4878:	48 8b 55 f0          	mov    -0x10(%rbp),%rdx
    487c:	48 8b 45 f8          	mov    -0x8(%rbp),%rax
    4880:	48 89 d6             	mov    %rdx,%rsi
    4883:	48 89 c7             	mov    %rax,%rdi
    4886:	e8 9e 0a 00 00       	call   5329 <_ZSt8_DestroyIPNSt7__cxx1112basic_stringIcSt11char_traitsIcESaIcEEEEvT_S7_>
    488b:	90                   	nop
    488c:	c9                   	leave  
    488d:	c3                   	ret    

000000000000488e <_ZNSt15__new_allocatorINSt8__detail10_Hash_nodeISt4pairIKNSt7__cxx1112basic_stringIcSt11char_traitsIcESaIcEEES8_ELb1EEEED1Ev>:
    488e:	f3 0f 1e fa          	endbr64 
    4892:	55                   	push   %rbp
    4893:	48 89 e5             	mov    %rsp,%rbp
    4896:	48 89 7d f8          	mov    %rdi,-0x8(%rbp)
    489a:	90                   	nop
    489b:	5d                   	pop    %rbp
    489c:	c3                   	ret    
    489d:	90                   	nop

000000000000489e <_ZNSt10_HashtableINSt7__cxx1112basic_stringIcSt11char_traitsIcESaIcEEESt4pairIKS5_S5_ESaIS8_ENSt8__detail10_Select1stESt8equal_toIS5_ESt4hashIS5_ENSA_18_Mod_range_hashingENSA_20_Default_ranged_hashENSA_20_Prime_rehash_policyENSA_17_Hashtable_traitsILb1ELb0ELb1EEEE5clearEv>:
    489e:	f3 0f 1e fa          	endbr64 
    48a2:	55                   	push   %rbp
    48a3:	48 89 e5             	mov    %rsp,%rbp
    48a6:	48 83 ec 10          	sub    $0x10,%rsp
    48aa:	48 89 7d f8          	mov    %rdi,-0x8(%rbp)
    48ae:	48 8b 45 f8          	mov    -0x8(%rbp),%rax
    48b2:	48 89 c7             	mov    %rax,%rdi
    48b5:	e8 9a 0a 00 00       	call   5354 <_ZNKSt10_HashtableINSt7__cxx1112basic_stringIcSt11char_traitsIcESaIcEEESt4pairIKS5_S5_ESaIS8_ENSt8__detail10_Select1stESt8equal_toIS5_ESt4hashIS5_ENSA_18_Mod_range_hashingENSA_20_Default_ranged_hashENSA_20_Prime_rehash_policyENSA_17_Hashtable_traitsILb1ELb0ELb1EEEE8_M_beginEv>
    48ba:	48 89 c2             	mov    %rax,%rdx
    48bd:	48 8b 45 f8          	mov    -0x8(%rbp),%rax
    48c1:	48 89 d6             	mov    %rdx,%rsi
    48c4:	48 89 c7             	mov    %rax,%rdi
    48c7:	e8 9e 0a 00 00       	call   536a <_ZNSt8__detail16_Hashtable_allocISaINS_10_Hash_nodeISt4pairIKNSt7__cxx1112basic_stringIcSt11char_traitsIcESaIcEEES8_ELb1EEEEE19_M_deallocate_nodesEPSB_>
    48cc:	48 8b 45 f8          	mov    -0x8(%rbp),%rax
    48d0:	48 8b 40 08          	mov    0x8(%rax),%rax
    48d4:	48 8d 14 c5 00 00 00 	lea    0x0(,%rax,8),%rdx
    48db:	00 
    48dc:	48 8b 45 f8          	mov    -0x8(%rbp),%rax
    48e0:	48 8b 00             	mov    (%rax),%rax
    48e3:	be 00 00 00 00       	mov    $0x0,%esi
    48e8:	48 89 c7             	mov    %rax,%rdi
    48eb:	e8 00 ec ff ff       	call   34f0 <memset@plt>
    48f0:	48 8b 45 f8          	mov    -0x8(%rbp),%rax
    48f4:	48 c7 40 18 00 00 00 	movq   $0x0,0x18(%rax)
    48fb:	00 
    48fc:	48 8b 45 f8          	mov    -0x8(%rbp),%rax
    4900:	48 c7 40 10 00 00 00 	movq   $0x0,0x10(%rax)
    4907:	00 
    4908:	90                   	nop
    4909:	c9                   	leave  
    490a:	c3                   	ret    
    490b:	90                   	nop

000000000000490c <_ZNSt10_HashtableINSt7__cxx1112basic_stringIcSt11char_traitsIcESaIcEEESt4pairIKS5_S5_ESaIS8_ENSt8__detail10_Select1stESt8equal_toIS5_ESt4hashIS5_ENSA_18_Mod_range_hashingENSA_20_Default_ranged_hashENSA_20_Prime_rehash_policyENSA_17_Hashtable_traitsILb1ELb0ELb1EEEE21_M_deallocate_bucketsEv>:
    490c:	f3 0f 1e fa          	endbr64 
    4910:	55                   	push   %rbp
    4911:	48 89 e5             	mov    %rsp,%rbp
    4914:	48 83 ec 10          	sub    $0x10,%rsp
    4918:	48 89 7d f8          	mov    %rdi,-0x8(%rbp)
    491c:	48 8b 45 f8          	mov    -0x8(%rbp),%rax
    4920:	48 8b 50 08          	mov    0x8(%rax),%rdx
    4924:	48 8b 45 f8          	mov    -0x8(%rbp),%rax
    4928:	48 8b 08             	mov    (%rax),%rcx
    492b:	48 8b 45 f8          	mov    -0x8(%rbp),%rax
    492f:	48 89 ce             	mov    %rcx,%rsi
    4932:	48 89 c7             	mov    %rax,%rdi
    4935:	e8 7c 0a 00 00       	call   53b6 <_ZNSt10_HashtableINSt7__cxx1112basic_stringIcSt11char_traitsIcESaIcEEESt4pairIKS5_S5_ESaIS8_ENSt8__detail10_Select1stESt8equal_toIS5_ESt4hashIS5_ENSA_18_Mod_range_hashingENSA_20_Default_ranged_hashENSA_20_Prime_rehash_policyENSA_17_Hashtable_traitsILb1ELb0ELb1EEEE21_M_deallocate_bucketsEPPNSA_15_Hash_node_baseEm>
    493a:	90                   	nop
    493b:	c9                   	leave  
    493c:	c3                   	ret    
    493d:	90                   	nop

000000000000493e <_ZNKSt6vectorI12DInstructionSaIS0_EE4sizeEv>:
    493e:	f3 0f 1e fa          	endbr64 
    4942:	55                   	push   %rbp
    4943:	48 89 e5             	mov    %rsp,%rbp
    4946:	48 89 7d f8          	mov    %rdi,-0x8(%rbp)
    494a:	48 8b 45 f8          	mov    -0x8(%rbp),%rax
    494e:	48 8b 50 08          	mov    0x8(%rax),%rdx
    4952:	48 8b 45 f8          	mov    -0x8(%rbp),%rax
    4956:	48 8b 00             	mov    (%rax),%rax
    4959:	48 29 c2             	sub    %rax,%rdx
    495c:	48 c1 fa 03          	sar    $0x3,%rdx
    4960:	48 b8 35 c2 72 4f 23 	movabs $0x34f72c234f72c235,%rax
    4967:	2c f7 34 
    496a:	48 0f af c2          	imul   %rdx,%rax
    496e:	5d                   	pop    %rbp
    496f:	c3                   	ret    

0000000000004970 <_ZNKSt12_Vector_baseI12DInstructionSaIS0_EE19_M_get_Tp_allocatorEv>:
    4970:	f3 0f 1e fa          	endbr64 
    4974:	55                   	push   %rbp
    4975:	48 89 e5             	mov    %rsp,%rbp
    4978:	48 89 7d f8          	mov    %rdi,-0x8(%rbp)
    497c:	48 8b 45 f8          	mov    -0x8(%rbp),%rax
    4980:	5d                   	pop    %rbp
    4981:	c3                   	ret    

0000000000004982 <_ZN9__gnu_cxx14__alloc_traitsISaI12DInstructionES1_E17_S_select_on_copyERKS2_>:
    4982:	f3 0f 1e fa          	endbr64 
    4986:	55                   	push   %rbp
    4987:	48 89 e5             	mov    %rsp,%rbp
    498a:	48 83 ec 20          	sub    $0x20,%rsp
    498e:	48 89 7d e8          	mov    %rdi,-0x18(%rbp)
    4992:	48 89 75 e0          	mov    %rsi,-0x20(%rbp)
    4996:	64 48 8b 04 25 28 00 	mov    %fs:0x28,%rax
    499d:	00 00 
    499f:	48 89 45 f8          	mov    %rax,-0x8(%rbp)
    49a3:	31 c0                	xor    %eax,%eax
    49a5:	48 8b 45 e8          	mov    -0x18(%rbp),%rax
    49a9:	48 8b 55 e0          	mov    -0x20(%rbp),%rdx
    49ad:	48 89 d6             	mov    %rdx,%rsi
    49b0:	48 89 c7             	mov    %rax,%rdi
    49b3:	e8 49 0a 00 00       	call   5401 <_ZNSt16allocator_traitsISaI12DInstructionEE37select_on_container_copy_constructionERKS1_>
    49b8:	48 8b 45 f8          	mov    -0x8(%rbp),%rax
    49bc:	64 48 2b 04 25 28 00 	sub    %fs:0x28,%rax
    49c3:	00 00 
    49c5:	74 05                	je     49cc <_ZN9__gnu_cxx14__alloc_traitsISaI12DInstructionES1_E17_S_select_on_copyERKS2_+0x4a>
    49c7:	e8 a4 ec ff ff       	call   3670 <__stack_chk_fail@plt>
    49cc:	48 8b 45 e8          	mov    -0x18(%rbp),%rax
    49d0:	c9                   	leave  
    49d1:	c3                   	ret    

00000000000049d2 <_ZNSaI12DInstructionED1Ev>:
    49d2:	f3 0f 1e fa          	endbr64 
    49d6:	55                   	push   %rbp
    49d7:	48 89 e5             	mov    %rsp,%rbp
    49da:	48 83 ec 10          	sub    $0x10,%rsp
    49de:	48 89 7d f8          	mov    %rdi,-0x8(%rbp)
    49e2:	48 8b 45 f8          	mov    -0x8(%rbp),%rax
    49e6:	48 89 c7             	mov    %rax,%rdi
    49e9:	e8 40 0a 00 00       	call   542e <_ZNSt15__new_allocatorI12DInstructionED1Ev>
    49ee:	90                   	nop
    49ef:	c9                   	leave  
    49f0:	c3                   	ret    
    49f1:	90                   	nop

00000000000049f2 <_ZNSt12_Vector_baseI12DInstructionSaIS0_EE12_Vector_implD1Ev>:
    49f2:	f3 0f 1e fa          	endbr64 
    49f6:	55                   	push   %rbp
    49f7:	48 89 e5             	mov    %rsp,%rbp
    49fa:	48 83 ec 10          	sub    $0x10,%rsp
    49fe:	48 89 7d f8          	mov    %rdi,-0x8(%rbp)
    4a02:	48 8b 45 f8          	mov    -0x8(%rbp),%rax
    4a06:	48 89 c7             	mov    %rax,%rdi
    4a09:	e8 c4 ff ff ff       	call   49d2 <_ZNSaI12DInstructionED1Ev>
    4a0e:	90                   	nop
    4a0f:	c9                   	leave  
    4a10:	c3                   	ret    
    4a11:	90                   	nop

0000000000004a12 <_ZNSt12_Vector_baseI12DInstructionSaIS0_EEC1EmRKS1_>:
    4a12:	f3 0f 1e fa          	endbr64 
    4a16:	55                   	push   %rbp
    4a17:	48 89 e5             	mov    %rsp,%rbp
    4a1a:	53                   	push   %rbx
    4a1b:	48 83 ec 28          	sub    $0x28,%rsp
    4a1f:	48 89 7d e8          	mov    %rdi,-0x18(%rbp)
    4a23:	48 89 75 e0          	mov    %rsi,-0x20(%rbp)
    4a27:	48 89 55 d8          	mov    %rdx,-0x28(%rbp)
    4a2b:	48 8b 45 e8          	mov    -0x18(%rbp),%rax
    4a2f:	48 8b 55 d8          	mov    -0x28(%rbp),%rdx
    4a33:	48 89 d6             	mov    %rdx,%rsi
    4a36:	48 89 c7             	mov    %rax,%rdi
    4a39:	e8 00 0a 00 00       	call   543e <_ZNSt12_Vector_baseI12DInstructionSaIS0_EE12_Vector_implC1ERKS1_>
    4a3e:	48 8b 55 e0          	mov    -0x20(%rbp),%rdx
    4a42:	48 8b 45 e8          	mov    -0x18(%rbp),%rax
    4a46:	48 89 d6             	mov    %rdx,%rsi
    4a49:	48 89 c7             	mov    %rax,%rdi
    4a4c:	e8 23 0a 00 00       	call   5474 <_ZNSt12_Vector_baseI12DInstructionSaIS0_EE17_M_create_storageEm>
    4a51:	eb 1e                	jmp    4a71 <_ZNSt12_Vector_baseI12DInstructionSaIS0_EEC1EmRKS1_+0x5f>
    4a53:	f3 0f 1e fa          	endbr64 
    4a57:	48 89 c3             	mov    %rax,%rbx
    4a5a:	48 8b 45 e8          	mov    -0x18(%rbp),%rax
    4a5e:	48 89 c7             	mov    %rax,%rdi
    4a61:	e8 8c ff ff ff       	call   49f2 <_ZNSt12_Vector_baseI12DInstructionSaIS0_EE12_Vector_implD1Ev>
    4a66:	48 89 d8             	mov    %rbx,%rax
    4a69:	48 89 c7             	mov    %rax,%rdi
    4a6c:	e8 0f ed ff ff       	call   3780 <_Unwind_Resume@plt>
    4a71:	48 8b 5d f8          	mov    -0x8(%rbp),%rbx
    4a75:	c9                   	leave  
    4a76:	c3                   	ret    
    4a77:	90                   	nop

0000000000004a78 <_ZNSt12_Vector_baseI12DInstructionSaIS0_EED1Ev>:
    4a78:	f3 0f 1e fa          	endbr64 
    4a7c:	55                   	push   %rbp
    4a7d:	48 89 e5             	mov    %rsp,%rbp
    4a80:	48 83 ec 10          	sub    $0x10,%rsp
    4a84:	48 89 7d f8          	mov    %rdi,-0x8(%rbp)
    4a88:	48 8b 45 f8          	mov    -0x8(%rbp),%rax
    4a8c:	48 8b 50 10          	mov    0x10(%rax),%rdx
    4a90:	48 8b 45 f8          	mov    -0x8(%rbp),%rax
    4a94:	48 8b 00             	mov    (%rax),%rax
    4a97:	48 29 c2             	sub    %rax,%rdx
    4a9a:	48 c1 fa 03          	sar    $0x3,%rdx
    4a9e:	48 b8 35 c2 72 4f 23 	movabs $0x34f72c234f72c235,%rax
    4aa5:	2c f7 34 
    4aa8:	48 0f af c2          	imul   %rdx,%rax
    4aac:	48 89 c2             	mov    %rax,%rdx
    4aaf:	48 8b 45 f8          	mov    -0x8(%rbp),%rax
    4ab3:	48 8b 08             	mov    (%rax),%rcx
    4ab6:	48 8b 45 f8          	mov    -0x8(%rbp),%rax
    4aba:	48 89 ce             	mov    %rcx,%rsi
    4abd:	48 89 c7             	mov    %rax,%rdi
    4ac0:	e8 0d 0a 00 00       	call   54d2 <_ZNSt12_Vector_baseI12DInstructionSaIS0_EE13_M_deallocateEPS0_m>
    4ac5:	48 8b 45 f8          	mov    -0x8(%rbp),%rax
    4ac9:	48 89 c7             	mov    %rax,%rdi
    4acc:	e8 21 ff ff ff       	call   49f2 <_ZNSt12_Vector_baseI12DInstructionSaIS0_EE12_Vector_implD1Ev>
    4ad1:	90                   	nop
    4ad2:	c9                   	leave  
    4ad3:	c3                   	ret    

0000000000004ad4 <_ZNKSt6vectorI12DInstructionSaIS0_EE5beginEv>:
    4ad4:	f3 0f 1e fa          	endbr64 
    4ad8:	55                   	push   %rbp
    4ad9:	48 89 e5             	mov    %rsp,%rbp
    4adc:	48 83 ec 20          	sub    $0x20,%rsp
    4ae0:	48 89 7d e8          	mov    %rdi,-0x18(%rbp)
    4ae4:	64 48 8b 04 25 28 00 	mov    %fs:0x28,%rax
    4aeb:	00 00 
    4aed:	48 89 45 f8          	mov    %rax,-0x8(%rbp)
    4af1:	31 c0                	xor    %eax,%eax
    4af3:	48 8b 55 e8          	mov    -0x18(%rbp),%rdx
    4af7:	48 8d 45 f0          	lea    -0x10(%rbp),%rax
    4afb:	48 89 d6             	mov    %rdx,%rsi
    4afe:	48 89 c7             	mov    %rax,%rdi
    4b01:	e8 06 0a 00 00       	call   550c <_ZN9__gnu_cxx17__normal_iteratorIPK12DInstructionSt6vectorIS1_SaIS1_EEEC1ERKS3_>
    4b06:	48 8b 45 f0          	mov    -0x10(%rbp),%rax
    4b0a:	48 8b 55 f8          	mov    -0x8(%rbp),%rdx
    4b0e:	64 48 2b 14 25 28 00 	sub    %fs:0x28,%rdx
    4b15:	00 00 
    4b17:	74 05                	je     4b1e <_ZNKSt6vectorI12DInstructionSaIS0_EE5beginEv+0x4a>
    4b19:	e8 52 eb ff ff       	call   3670 <__stack_chk_fail@plt>
    4b1e:	c9                   	leave  
    4b1f:	c3                   	ret    

0000000000004b20 <_ZNKSt6vectorI12DInstructionSaIS0_EE3endEv>:
    4b20:	f3 0f 1e fa          	endbr64 
    4b24:	55                   	push   %rbp
    4b25:	48 89 e5             	mov    %rsp,%rbp
    4b28:	48 83 ec 20          	sub    $0x20,%rsp
    4b2c:	48 89 7d e8          	mov    %rdi,-0x18(%rbp)
    4b30:	64 48 8b 04 25 28 00 	mov    %fs:0x28,%rax
    4b37:	00 00 
    4b39:	48 89 45 f8          	mov    %rax,-0x8(%rbp)
    4b3d:	31 c0                	xor    %eax,%eax
    4b3f:	48 8b 45 e8          	mov    -0x18(%rbp),%rax
    4b43:	48 8d 50 08          	lea    0x8(%rax),%rdx
    4b47:	48 8d 45 f0          	lea    -0x10(%rbp),%rax
    4b4b:	48 89 d6             	mov    %rdx,%rsi
    4b4e:	48 89 c7             	mov    %rax,%rdi
    4b51:	e8 b6 09 00 00       	call   550c <_ZN9__gnu_cxx17__normal_iteratorIPK12DInstructionSt6vectorIS1_SaIS1_EEEC1ERKS3_>
    4b56:	48 8b 45 f0          	mov    -0x10(%rbp),%rax
    4b5a:	48 8b 55 f8          	mov    -0x8(%rbp),%rdx
    4b5e:	64 48 2b 14 25 28 00 	sub    %fs:0x28,%rdx
    4b65:	00 00 
    4b67:	74 05                	je     4b6e <_ZNKSt6vectorI12DInstructionSaIS0_EE3endEv+0x4e>
    4b69:	e8 02 eb ff ff       	call   3670 <__stack_chk_fail@plt>
    4b6e:	c9                   	leave  
    4b6f:	c3                   	ret    

0000000000004b70 <_ZNSt12_Vector_baseI12DInstructionSaIS0_EE19_M_get_Tp_allocatorEv>:
    4b70:	f3 0f 1e fa          	endbr64 
    4b74:	55                   	push   %rbp
    4b75:	48 89 e5             	mov    %rsp,%rbp
    4b78:	48 89 7d f8          	mov    %rdi,-0x8(%rbp)
    4b7c:	48 8b 45 f8          	mov    -0x8(%rbp),%rax
    4b80:	5d                   	pop    %rbp
    4b81:	c3                   	ret    

0000000000004b82 <_ZSt22__uninitialized_copy_aIN9__gnu_cxx17__normal_iteratorIPK12DInstructionSt6vectorIS2_SaIS2_EEEEPS2_S2_ET0_T_SB_SA_RSaIT1_E>:
    4b82:	f3 0f 1e fa          	endbr64 
    4b86:	55                   	push   %rbp
    4b87:	48 89 e5             	mov    %rsp,%rbp
    4b8a:	48 83 ec 20          	sub    $0x20,%rsp
    4b8e:	48 89 7d f8          	mov    %rdi,-0x8(%rbp)
    4b92:	48 89 75 f0          	mov    %rsi,-0x10(%rbp)
    4b96:	48 89 55 e8          	mov    %rdx,-0x18(%rbp)
    4b9a:	48 89 4d e0          	mov    %rcx,-0x20(%rbp)
    4b9e:	48 8b 55 e8          	mov    -0x18(%rbp),%rdx
    4ba2:	48 8b 4d f0          	mov    -0x10(%rbp),%rcx
    4ba6:	48 8b 45 f8          	mov    -0x8(%rbp),%rax
    4baa:	48 89 ce             	mov    %rcx,%rsi
    4bad:	48 89 c7             	mov    %rax,%rdi
    4bb0:	e8 78 09 00 00       	call   552d <_ZSt18uninitialized_copyIN9__gnu_cxx17__normal_iteratorIPK12DInstructionSt6vectorIS2_SaIS2_EEEEPS2_ET0_T_SB_SA_>
    4bb5:	c9                   	leave  
    4bb6:	c3                   	ret    

0000000000004bb7 <_ZSt8_DestroyIP12DInstructionS0_EvT_S2_RSaIT0_E>:
    4bb7:	f3 0f 1e fa          	endbr64 
    4bbb:	55                   	push   %rbp
    4bbc:	48 89 e5             	mov    %rsp,%rbp
    4bbf:	48 83 ec 20          	sub    $0x20,%rsp
    4bc3:	48 89 7d f8          	mov    %rdi,-0x8(%rbp)
    4bc7:	48 89 75 f0          	mov    %rsi,-0x10(%rbp)
    4bcb:	48 89 55 e8          	mov    %rdx,-0x18(%rbp)
    4bcf:	48 8b 55 f0          	mov    -0x10(%rbp),%rdx
    4bd3:	48 8b 45 f8          	mov    -0x8(%rbp),%rax
    4bd7:	48 89 d6             	mov    %rdx,%rsi
    4bda:	48 89 c7             	mov    %rax,%rdi
    4bdd:	e8 84 09 00 00       	call   5566 <_ZSt8_DestroyIP12DInstructionEvT_S2_>
    4be2:	90                   	nop
    4be3:	c9                   	leave  
    4be4:	c3                   	ret    
    4be5:	90                   	nop

0000000000004be6 <_ZNKSt8__detail16_Hashtable_allocISaINS_10_Hash_nodeISt4pairIKNSt7__cxx1112basic_stringIcSt11char_traitsIcESaIcEEE8RegisterELb1EEEEE17_M_node_allocatorEv>:
    4be6:	f3 0f 1e fa          	endbr64 
    4bea:	55                   	push   %rbp
    4beb:	48 89 e5             	mov    %rsp,%rbp
    4bee:	48 83 ec 10          	sub    $0x10,%rsp
    4bf2:	48 89 7d f8          	mov    %rdi,-0x8(%rbp)
    4bf6:	48 8b 45 f8          	mov    -0x8(%rbp),%rax
    4bfa:	48 89 c7             	mov    %rax,%rdi
    4bfd:	e8 8e 09 00 00       	call   5590 <_ZNKSt8__detail21_Hashtable_ebo_helperILi0ESaINS_10_Hash_nodeISt4pairIKNSt7__cxx1112basic_stringIcSt11char_traitsIcESaIcEEE8RegisterELb1EEEELb1EE7_M_cgetEv>
    4c02:	c9                   	leave  
    4c03:	c3                   	ret    

0000000000004c04 <_ZN9__gnu_cxx14__alloc_traitsISaINSt8__detail10_Hash_nodeISt4pairIKNSt7__cxx1112basic_stringIcSt11char_traitsIcESaIcEEE8RegisterELb1EEEESD_E17_S_select_on_copyERKSE_>:
    4c04:	f3 0f 1e fa          	endbr64 
    4c08:	55                   	push   %rbp
    4c09:	48 89 e5             	mov    %rsp,%rbp
    4c0c:	48 83 ec 20          	sub    $0x20,%rsp
    4c10:	48 89 7d e8          	mov    %rdi,-0x18(%rbp)
    4c14:	48 89 75 e0          	mov    %rsi,-0x20(%rbp)
    4c18:	64 48 8b 04 25 28 00 	mov    %fs:0x28,%rax
    4c1f:	00 00 
    4c21:	48 89 45 f8          	mov    %rax,-0x8(%rbp)
    4c25:	31 c0                	xor    %eax,%eax
    4c27:	48 8b 45 e8          	mov    -0x18(%rbp),%rax
    4c2b:	48 8b 55 e0          	mov    -0x20(%rbp),%rdx
    4c2f:	48 89 d6             	mov    %rdx,%rsi
    4c32:	48 89 c7             	mov    %rax,%rdi
    4c35:	e8 68 09 00 00       	call   55a2 <_ZNSt16allocator_traitsISaINSt8__detail10_Hash_nodeISt4pairIKNSt7__cxx1112basic_stringIcSt11char_traitsIcESaIcEEE8RegisterELb1EEEEE37select_on_container_copy_constructionERKSD_>
    4c3a:	48 8b 45 f8          	mov    -0x8(%rbp),%rax
    4c3e:	64 48 2b 04 25 28 00 	sub    %fs:0x28,%rax
    4c45:	00 00 
    4c47:	74 05                	je     4c4e <_ZN9__gnu_cxx14__alloc_traitsISaINSt8__detail10_Hash_nodeISt4pairIKNSt7__cxx1112basic_stringIcSt11char_traitsIcESaIcEEE8RegisterELb1EEEESD_E17_S_select_on_copyERKSE_+0x4a>
    4c49:	e8 22 ea ff ff       	call   3670 <__stack_chk_fail@plt>
    4c4e:	48 8b 45 e8          	mov    -0x18(%rbp),%rax
    4c52:	c9                   	leave  
    4c53:	c3                   	ret    

0000000000004c54 <_ZNSt8__detail16_Hashtable_allocISaINS_10_Hash_nodeISt4pairIKNSt7__cxx1112basic_stringIcSt11char_traitsIcESaIcEEE8RegisterELb1EEEEEC1ISD_EEOT_>:
    4c54:	f3 0f 1e fa          	endbr64 
    4c58:	55                   	push   %rbp
    4c59:	48 89 e5             	mov    %rsp,%rbp
    4c5c:	48 83 ec 10          	sub    $0x10,%rsp
    4c60:	48 89 7d f8          	mov    %rdi,-0x8(%rbp)
    4c64:	48 89 75 f0          	mov    %rsi,-0x10(%rbp)
    4c68:	48 8b 45 f0          	mov    -0x10(%rbp),%rax
    4c6c:	48 89 c7             	mov    %rax,%rdi
    4c6f:	e8 5b 09 00 00       	call   55cf <_ZSt7forwardISaINSt8__detail10_Hash_nodeISt4pairIKNSt7__cxx1112basic_stringIcSt11char_traitsIcESaIcEEE8RegisterELb1EEEEEOT_RNSt16remove_referenceISE_E4typeE>
    4c74:	48 89 c2             	mov    %rax,%rdx
    4c77:	48 8b 45 f8          	mov    -0x8(%rbp),%rax
    4c7b:	48 89 d6             	mov    %rdx,%rsi
    4c7e:	48 89 c7             	mov    %rax,%rdi
    4c81:	e8 5c 09 00 00       	call   55e2 <_ZNSt8__detail21_Hashtable_ebo_helperILi0ESaINS_10_Hash_nodeISt4pairIKNSt7__cxx1112basic_stringIcSt11char_traitsIcESaIcEEE8RegisterELb1EEEELb1EEC1ISD_EEOT_>
    4c86:	90                   	nop
    4c87:	c9                   	leave  
    4c88:	c3                   	ret    
    4c89:	90                   	nop

0000000000004c8a <_ZNSt8__detail10_AllocNodeISaINS_10_Hash_nodeISt4pairIKNSt7__cxx1112basic_stringIcSt11char_traitsIcESaIcEEE8RegisterELb1EEEEEC1ERNS_16_Hashtable_allocISD_EE>:
    4c8a:	f3 0f 1e fa          	endbr64 
    4c8e:	55                   	push   %rbp
    4c8f:	48 89 e5             	mov    %rsp,%rbp
    4c92:	48 89 7d f8          	mov    %rdi,-0x8(%rbp)
    4c96:	48 89 75 f0          	mov    %rsi,-0x10(%rbp)
    4c9a:	48 8b 45 f8          	mov    -0x8(%rbp),%rax
    4c9e:	48 8b 55 f0          	mov    -0x10(%rbp),%rdx
    4ca2:	48 89 10             	mov    %rdx,(%rax)
    4ca5:	90                   	nop
    4ca6:	5d                   	pop    %rbp
    4ca7:	c3                   	ret    

0000000000004ca8 <_ZNSt10_HashtableINSt7__cxx1112basic_stringIcSt11char_traitsIcESaIcEEESt4pairIKS5_8RegisterESaIS9_ENSt8__detail10_Select1stESt8equal_toIS5_ESt4hashIS5_ENSB_18_Mod_range_hashingENSB_20_Default_ranged_hashENSB_20_Prime_rehash_policyENSB_17_Hashtable_traitsILb1ELb0ELb1EEEE9_M_assignIRKSM_NSB_10_AllocNodeISaINSB_10_Hash_nodeIS9_Lb1EEEEEEEEvOT_RKT0_>:
    4ca8:	f3 0f 1e fa          	endbr64 
    4cac:	55                   	push   %rbp
    4cad:	48 89 e5             	mov    %rsp,%rbp
    4cb0:	53                   	push   %rbx
    4cb1:	48 83 ec 58          	sub    $0x58,%rsp
    4cb5:	48 89 7d b8          	mov    %rdi,-0x48(%rbp)
    4cb9:	48 89 75 b0          	mov    %rsi,-0x50(%rbp)
    4cbd:	48 89 55 a8          	mov    %rdx,-0x58(%rbp)
    4cc1:	48 c7 45 c8 00 00 00 	movq   $0x0,-0x38(%rbp)
    4cc8:	00 
    4cc9:	48 8b 45 b8          	mov    -0x48(%rbp),%rax
    4ccd:	48 8b 00             	mov    (%rax),%rax
    4cd0:	48 85 c0             	test   %rax,%rax
    4cd3:	75 26                	jne    4cfb <_ZNSt10_HashtableINSt7__cxx1112basic_stringIcSt11char_traitsIcESaIcEEESt4pairIKS5_8RegisterESaIS9_ENSt8__detail10_Select1stESt8equal_toIS5_ESt4hashIS5_ENSB_18_Mod_range_hashingENSB_20_Default_ranged_hashENSB_20_Prime_rehash_policyENSB_17_Hashtable_traitsILb1ELb0ELb1EEEE9_M_assignIRKSM_NSB_10_AllocNodeISaINSB_10_Hash_nodeIS9_Lb1EEEEEEEEvOT_RKT0_+0x53>
    4cd5:	48 8b 45 b8          	mov    -0x48(%rbp),%rax
    4cd9:	48 8b 50 08          	mov    0x8(%rax),%rdx
    4cdd:	48 8b 45 b8          	mov    -0x48(%rbp),%rax
    4ce1:	48 89 d6             	mov    %rdx,%rsi
    4ce4:	48 89 c7             	mov    %rax,%rdi
    4ce7:	e8 2c 09 00 00       	call   5618 <_ZNSt10_HashtableINSt7__cxx1112basic_stringIcSt11char_traitsIcESaIcEEESt4pairIKS5_8RegisterESaIS9_ENSt8__detail10_Select1stESt8equal_toIS5_ESt4hashIS5_ENSB_18_Mod_range_hashingENSB_20_Default_ranged_hashENSB_20_Prime_rehash_policyENSB_17_Hashtable_traitsILb1ELb0ELb1EEEE19_M_allocate_bucketsEm>
    4cec:	48 89 45 c8          	mov    %rax,-0x38(%rbp)
    4cf0:	48 8b 45 b8          	mov    -0x48(%rbp),%rax
    4cf4:	48 8b 55 c8          	mov    -0x38(%rbp),%rdx
    4cf8:	48 89 10             	mov    %rdx,(%rax)
    4cfb:	48 8b 45 b0          	mov    -0x50(%rbp),%rax
    4cff:	48 8b 40 10          	mov    0x10(%rax),%rax
    4d03:	48 85 c0             	test   %rax,%rax
    4d06:	0f 84 9f 01 00 00    	je     4eab <_ZNSt10_HashtableINSt7__cxx1112basic_stringIcSt11char_traitsIcESaIcEEESt4pairIKS5_8RegisterESaIS9_ENSt8__detail10_Select1stESt8equal_toIS5_ESt4hashIS5_ENSB_18_Mod_range_hashingENSB_20_Default_ranged_hashENSB_20_Prime_rehash_policyENSB_17_Hashtable_traitsILb1ELb0ELb1EEEE9_M_assignIRKSM_NSB_10_AllocNodeISaINSB_10_Hash_nodeIS9_Lb1EEEEEEEEvOT_RKT0_+0x203>
    4d0c:	48 8b 45 b0          	mov    -0x50(%rbp),%rax
    4d10:	48 89 c7             	mov    %rax,%rdi
    4d13:	e8 50 09 00 00       	call   5668 <_ZNKSt10_HashtableINSt7__cxx1112basic_stringIcSt11char_traitsIcESaIcEEESt4pairIKS5_8RegisterESaIS9_ENSt8__detail10_Select1stESt8equal_toIS5_ESt4hashIS5_ENSB_18_Mod_range_hashingENSB_20_Default_ranged_hashENSB_20_Prime_rehash_policyENSB_17_Hashtable_traitsILb1ELb0ELb1EEEE8_M_beginEv>
    4d18:	48 89 45 d0          	mov    %rax,-0x30(%rbp)
    4d1c:	48 8b 45 d0          	mov    -0x30(%rbp),%rax
    4d20:	48 83 c0 08          	add    $0x8,%rax
    4d24:	48 89 c7             	mov    %rax,%rdi
    4d27:	e8 52 09 00 00       	call   567e <_ZNSt8__detail21_Hash_node_value_baseISt4pairIKNSt7__cxx1112basic_stringIcSt11char_traitsIcESaIcEEE8RegisterEE4_M_vEv>
    4d2c:	48 89 c7             	mov    %rax,%rdi
    4d2f:	e8 68 09 00 00       	call   569c <_ZNSt10_HashtableINSt7__cxx1112basic_stringIcSt11char_traitsIcESaIcEEESt4pairIKS5_8RegisterESaIS9_ENSt8__detail10_Select1stESt8equal_toIS5_ESt4hashIS5_ENSB_18_Mod_range_hashingENSB_20_Default_ranged_hashENSB_20_Prime_rehash_policyENSB_17_Hashtable_traitsILb1ELb0ELb1EEEE15__fwd_value_forIRKSM_EENSt13__conditionalIXsrSt19is_lvalue_referenceIT_E5valueEE4typeIRKS9_OS9_EERS9_>
    4d34:	48 89 c2             	mov    %rax,%rdx
    4d37:	48 8b 45 a8          	mov    -0x58(%rbp),%rax
    4d3b:	48 89 d6             	mov    %rdx,%rsi
    4d3e:	48 89 c7             	mov    %rax,%rdi
    4d41:	e8 74 09 00 00       	call   56ba <_ZNKSt8__detail10_AllocNodeISaINS_10_Hash_nodeISt4pairIKNSt7__cxx1112basic_stringIcSt11char_traitsIcESaIcEEE8RegisterELb1EEEEEclIJRKSB_EEEPSC_DpOT_>
    4d46:	48 89 45 e0          	mov    %rax,-0x20(%rbp)
    4d4a:	48 8b 45 d0          	mov    -0x30(%rbp),%rax
    4d4e:	48 8d 50 50          	lea    0x50(%rax),%rdx
    4d52:	48 8b 45 e0          	mov    -0x20(%rbp),%rax
    4d56:	48 8d 48 50          	lea    0x50(%rax),%rcx
    4d5a:	48 8b 45 b8          	mov    -0x48(%rbp),%rax
    4d5e:	48 89 ce             	mov    %rcx,%rsi
    4d61:	48 89 c7             	mov    %rax,%rdi
    4d64:	e8 8b 09 00 00       	call   56f4 <_ZNKSt8__detail15_Hash_code_baseINSt7__cxx1112basic_stringIcSt11char_traitsIcESaIcEEESt4pairIKS6_8RegisterENS_10_Select1stESt4hashIS6_ENS_18_Mod_range_hashingENS_20_Default_ranged_hashELb1EE12_M_copy_codeERNS_21_Hash_node_code_cacheILb1EEERKSI_>
    4d69:	48 8b 55 e0          	mov    -0x20(%rbp),%rdx
    4d6d:	48 8b 45 b8          	mov    -0x48(%rbp),%rax
    4d71:	48 89 d6             	mov    %rdx,%rsi
    4d74:	48 89 c7             	mov    %rax,%rdi
    4d77:	e8 9e 09 00 00       	call   571a <_ZNSt10_HashtableINSt7__cxx1112basic_stringIcSt11char_traitsIcESaIcEEESt4pairIKS5_8RegisterESaIS9_ENSt8__detail10_Select1stESt8equal_toIS5_ESt4hashIS5_ENSB_18_Mod_range_hashingENSB_20_Default_ranged_hashENSB_20_Prime_rehash_policyENSB_17_Hashtable_traitsILb1ELb0ELb1EEEE16_M_update_bbeginEPNSB_10_Hash_nodeIS9_Lb1EEE>
    4d7c:	48 8b 45 e0          	mov    -0x20(%rbp),%rax
    4d80:	48 89 45 d8          	mov    %rax,-0x28(%rbp)
    4d84:	48 8b 45 d0          	mov    -0x30(%rbp),%rax
    4d88:	48 89 c7             	mov    %rax,%rdi
    4d8b:	e8 ba 09 00 00       	call   574a <_ZNKSt8__detail10_Hash_nodeISt4pairIKNSt7__cxx1112basic_stringIcSt11char_traitsIcESaIcEEE8RegisterELb1EE7_M_nextEv>
    4d90:	48 89 45 d0          	mov    %rax,-0x30(%rbp)
    4d94:	e9 be 00 00 00       	jmp    4e57 <_ZNSt10_HashtableINSt7__cxx1112basic_stringIcSt11char_traitsIcESaIcEEESt4pairIKS5_8RegisterESaIS9_ENSt8__detail10_Select1stESt8equal_toIS5_ESt4hashIS5_ENSB_18_Mod_range_hashingENSB_20_Default_ranged_hashENSB_20_Prime_rehash_policyENSB_17_Hashtable_traitsILb1ELb0ELb1EEEE9_M_assignIRKSM_NSB_10_AllocNodeISaINSB_10_Hash_nodeIS9_Lb1EEEEEEEEvOT_RKT0_+0x1af>
    4d99:	48 8b 45 d0          	mov    -0x30(%rbp),%rax
    4d9d:	48 83 c0 08          	add    $0x8,%rax
    4da1:	48 89 c7             	mov    %rax,%rdi
    4da4:	e8 d5 08 00 00       	call   567e <_ZNSt8__detail21_Hash_node_value_baseISt4pairIKNSt7__cxx1112basic_stringIcSt11char_traitsIcESaIcEEE8RegisterEE4_M_vEv>
    4da9:	48 89 c7             	mov    %rax,%rdi
    4dac:	e8 eb 08 00 00       	call   569c <_ZNSt10_HashtableINSt7__cxx1112basic_stringIcSt11char_traitsIcESaIcEEESt4pairIKS5_8RegisterESaIS9_ENSt8__detail10_Select1stESt8equal_toIS5_ESt4hashIS5_ENSB_18_Mod_range_hashingENSB_20_Default_ranged_hashENSB_20_Prime_rehash_policyENSB_17_Hashtable_traitsILb1ELb0ELb1EEEE15__fwd_value_forIRKSM_EENSt13__conditionalIXsrSt19is_lvalue_referenceIT_E5valueEE4typeIRKS9_OS9_EERS9_>
    4db1:	48 89 c2             	mov    %rax,%rdx
    4db4:	48 8b 45 a8          	mov    -0x58(%rbp),%rax
    4db8:	48 89 d6             	mov    %rdx,%rsi
    4dbb:	48 89 c7             	mov    %rax,%rdi
    4dbe:	e8 f7 08 00 00       	call   56ba <_ZNKSt8__detail10_AllocNodeISaINS_10_Hash_nodeISt4pairIKNSt7__cxx1112basic_stringIcSt11char_traitsIcESaIcEEE8RegisterELb1EEEEEclIJRKSB_EEEPSC_DpOT_>
    4dc3:	48 89 45 e0          	mov    %rax,-0x20(%rbp)
    4dc7:	48 8b 45 d8          	mov    -0x28(%rbp),%rax
    4dcb:	48 8b 55 e0          	mov    -0x20(%rbp),%rdx
    4dcf:	48 89 10             	mov    %rdx,(%rax)
    4dd2:	48 8b 45 d0          	mov    -0x30(%rbp),%rax
    4dd6:	48 8d 50 50          	lea    0x50(%rax),%rdx
    4dda:	48 8b 45 e0          	mov    -0x20(%rbp),%rax
    4dde:	48 8d 48 50          	lea    0x50(%rax),%rcx
    4de2:	48 8b 45 b8          	mov    -0x48(%rbp),%rax
    4de6:	48 89 ce             	mov    %rcx,%rsi
    4de9:	48 89 c7             	mov    %rax,%rdi
    4dec:	e8 03 09 00 00       	call   56f4 <_ZNKSt8__detail15_Hash_code_baseINSt7__cxx1112basic_stringIcSt11char_traitsIcESaIcEEESt4pairIKS6_8RegisterENS_10_Select1stESt4hashIS6_ENS_18_Mod_range_hashingENS_20_Default_ranged_hashELb1EE12_M_copy_codeERNS_21_Hash_node_code_cacheILb1EEERKSI_>
    4df1:	48 8b 45 e0          	mov    -0x20(%rbp),%rax
    4df5:	48 8d 50 08          	lea    0x8(%rax),%rdx
    4df9:	48 8b 45 b8          	mov    -0x48(%rbp),%rax
    4dfd:	48 89 d6             	mov    %rdx,%rsi
    4e00:	48 89 c7             	mov    %rax,%rdi
    4e03:	e8 58 09 00 00       	call   5760 <_ZNKSt10_HashtableINSt7__cxx1112basic_stringIcSt11char_traitsIcESaIcEEESt4pairIKS5_8RegisterESaIS9_ENSt8__detail10_Select1stESt8equal_toIS5_ESt4hashIS5_ENSB_18_Mod_range_hashingENSB_20_Default_ranged_hashENSB_20_Prime_rehash_policyENSB_17_Hashtable_traitsILb1ELb0ELb1EEEE15_M_bucket_indexERKNSB_16_Hash_node_valueIS9_Lb1EEE>
    4e08:	48 89 45 e8          	mov    %rax,-0x18(%rbp)
    4e0c:	48 8b 45 b8          	mov    -0x48(%rbp),%rax
    4e10:	48 8b 00             	mov    (%rax),%rax
    4e13:	48 8b 55 e8          	mov    -0x18(%rbp),%rdx
    4e17:	48 c1 e2 03          	shl    $0x3,%rdx
    4e1b:	48 01 d0             	add    %rdx,%rax
    4e1e:	48 8b 00             	mov    (%rax),%rax
    4e21:	48 85 c0             	test   %rax,%rax
    4e24:	75 19                	jne    4e3f <_ZNSt10_HashtableINSt7__cxx1112basic_stringIcSt11char_traitsIcESaIcEEESt4pairIKS5_8RegisterESaIS9_ENSt8__detail10_Select1stESt8equal_toIS5_ESt4hashIS5_ENSB_18_Mod_range_hashingENSB_20_Default_ranged_hashENSB_20_Prime_rehash_policyENSB_17_Hashtable_traitsILb1ELb0ELb1EEEE9_M_assignIRKSM_NSB_10_AllocNodeISaINSB_10_Hash_nodeIS9_Lb1EEEEEEEEvOT_RKT0_+0x197>
    4e26:	48 8b 45 b8          	mov    -0x48(%rbp),%rax
    4e2a:	48 8b 00             	mov    (%rax),%rax
    4e2d:	48 8b 55 e8          	mov    -0x18(%rbp),%rdx
    4e31:	48 c1 e2 03          	shl    $0x3,%rdx
    4e35:	48 01 c2             	add    %rax,%rdx
    4e38:	48 8b 45 d8          	mov    -0x28(%rbp),%rax
    4e3c:	48 89 02             	mov    %rax,(%rdx)
    4e3f:	48 8b 45 e0          	mov    -0x20(%rbp),%rax
    4e43:	48 89 45 d8          	mov    %rax,-0x28(%rbp)
    4e47:	48 8b 45 d0          	mov    -0x30(%rbp),%rax
    4e4b:	48 89 c7             	mov    %rax,%rdi
    4e4e:	e8 f7 08 00 00       	call   574a <_ZNKSt8__detail10_Hash_nodeISt4pairIKNSt7__cxx1112basic_stringIcSt11char_traitsIcESaIcEEE8RegisterELb1EE7_M_nextEv>
    4e53:	48 89 45 d0          	mov    %rax,-0x30(%rbp)
    4e57:	48 83 7d d0 00       	cmpq   $0x0,-0x30(%rbp)
    4e5c:	0f 85 37 ff ff ff    	jne    4d99 <_ZNSt10_HashtableINSt7__cxx1112basic_stringIcSt11char_traitsIcESaIcEEESt4pairIKS5_8RegisterESaIS9_ENSt8__detail10_Select1stESt8equal_toIS5_ESt4hashIS5_ENSB_18_Mod_range_hashingENSB_20_Default_ranged_hashENSB_20_Prime_rehash_policyENSB_17_Hashtable_traitsILb1ELb0ELb1EEEE9_M_assignIRKSM_NSB_10_AllocNodeISaINSB_10_Hash_nodeIS9_Lb1EEEEEEEEvOT_RKT0_+0xf1>
    4e62:	eb 48                	jmp    4eac <_ZNSt10_HashtableINSt7__cxx1112basic_stringIcSt11char_traitsIcESaIcEEESt4pairIKS5_8RegisterESaIS9_ENSt8__detail10_Select1stESt8equal_toIS5_ESt4hashIS5_ENSB_18_Mod_range_hashingENSB_20_Default_ranged_hashENSB_20_Prime_rehash_policyENSB_17_Hashtable_traitsILb1ELb0ELb1EEEE9_M_assignIRKSM_NSB_10_AllocNodeISaINSB_10_Hash_nodeIS9_Lb1EEEEEEEEvOT_RKT0_+0x204>
    4e64:	f3 0f 1e fa          	endbr64 
    4e68:	48 89 c7             	mov    %rax,%rdi
    4e6b:	e8 20 e6 ff ff       	call   3490 <__cxa_begin_catch@plt>
    4e70:	48 8b 45 b8          	mov    -0x48(%rbp),%rax
    4e74:	48 89 c7             	mov    %rax,%rdi
    4e77:	e8 36 00 00 00       	call   4eb2 <_ZNSt10_HashtableINSt7__cxx1112basic_stringIcSt11char_traitsIcESaIcEEESt4pairIKS5_8RegisterESaIS9_ENSt8__detail10_Select1stESt8equal_toIS5_ESt4hashIS5_ENSB_18_Mod_range_hashingENSB_20_Default_ranged_hashENSB_20_Prime_rehash_policyENSB_17_Hashtable_traitsILb1ELb0ELb1EEEE5clearEv>
    4e7c:	48 83 7d c8 00       	cmpq   $0x0,-0x38(%rbp)
    4e81:	74 0c                	je     4e8f <_ZNSt10_HashtableINSt7__cxx1112basic_stringIcSt11char_traitsIcESaIcEEESt4pairIKS5_8RegisterESaIS9_ENSt8__detail10_Select1stESt8equal_toIS5_ESt4hashIS5_ENSB_18_Mod_range_hashingENSB_20_Default_ranged_hashENSB_20_Prime_rehash_policyENSB_17_Hashtable_traitsILb1ELb0ELb1EEEE9_M_assignIRKSM_NSB_10_AllocNodeISaINSB_10_Hash_nodeIS9_Lb1EEEEEEEEvOT_RKT0_+0x1e7>
    4e83:	48 8b 45 b8          	mov    -0x48(%rbp),%rax
    4e87:	48 89 c7             	mov    %rax,%rdi
    4e8a:	e8 91 00 00 00       	call   4f20 <_ZNSt10_HashtableINSt7__cxx1112basic_stringIcSt11char_traitsIcESaIcEEESt4pairIKS5_8RegisterESaIS9_ENSt8__detail10_Select1stESt8equal_toIS5_ESt4hashIS5_ENSB_18_Mod_range_hashingENSB_20_Default_ranged_hashENSB_20_Prime_rehash_policyENSB_17_Hashtable_traitsILb1ELb0ELb1EEEE21_M_deallocate_bucketsEv>
    4e8f:	e8 4c e8 ff ff       	call   36e0 <__cxa_rethrow@plt>
    4e94:	f3 0f 1e fa          	endbr64 
    4e98:	48 89 c3             	mov    %rax,%rbx
    4e9b:	e8 90 e8 ff ff       	call   3730 <__cxa_end_catch@plt>
    4ea0:	48 89 d8             	mov    %rbx,%rax
    4ea3:	48 89 c7             	mov    %rax,%rdi
    4ea6:	e8 d5 e8 ff ff       	call   3780 <_Unwind_Resume@plt>
    4eab:	90                   	nop
    4eac:	48 8b 5d f8          	mov    -0x8(%rbp),%rbx
    4eb0:	c9                   	leave  
    4eb1:	c3                   	ret    

0000000000004eb2 <_ZNSt10_HashtableINSt7__cxx1112basic_stringIcSt11char_traitsIcESaIcEEESt4pairIKS5_8RegisterESaIS9_ENSt8__detail10_Select1stESt8equal_toIS5_ESt4hashIS5_ENSB_18_Mod_range_hashingENSB_20_Default_ranged_hashENSB_20_Prime_rehash_policyENSB_17_Hashtable_traitsILb1ELb0ELb1EEEE5clearEv>:
    4eb2:	f3 0f 1e fa          	endbr64 
    4eb6:	55                   	push   %rbp
    4eb7:	48 89 e5             	mov    %rsp,%rbp
    4eba:	48 83 ec 10          	sub    $0x10,%rsp
    4ebe:	48 89 7d f8          	mov    %rdi,-0x8(%rbp)
    4ec2:	48 8b 45 f8          	mov    -0x8(%rbp),%rax
    4ec6:	48 89 c7             	mov    %rax,%rdi
    4ec9:	e8 9a 07 00 00       	call   5668 <_ZNKSt10_HashtableINSt7__cxx1112basic_stringIcSt11char_traitsIcESaIcEEESt4pairIKS5_8RegisterESaIS9_ENSt8__detail10_Select1stESt8equal_toIS5_ESt4hashIS5_ENSB_18_Mod_range_hashingENSB_20_Default_ranged_hashENSB_20_Prime_rehash_policyENSB_17_Hashtable_traitsILb1ELb0ELb1EEEE8_M_beginEv>
    4ece:	48 89 c2             	mov    %rax,%rdx
    4ed1:	48 8b 45 f8          	mov    -0x8(%rbp),%rax
    4ed5:	48 89 d6             	mov    %rdx,%rsi
    4ed8:	48 89 c7             	mov    %rax,%rdi
    4edb:	e8 b2 08 00 00       	call   5792 <_ZNSt8__detail16_Hashtable_allocISaINS_10_Hash_nodeISt4pairIKNSt7__cxx1112basic_stringIcSt11char_traitsIcESaIcEEE8RegisterELb1EEEEE19_M_deallocate_nodesEPSC_>
    4ee0:	48 8b 45 f8          	mov    -0x8(%rbp),%rax
    4ee4:	48 8b 40 08          	mov    0x8(%rax),%rax
    4ee8:	48 8d 14 c5 00 00 00 	lea    0x0(,%rax,8),%rdx
    4eef:	00 
    4ef0:	48 8b 45 f8          	mov    -0x8(%rbp),%rax
    4ef4:	48 8b 00             	mov    (%rax),%rax
    4ef7:	be 00 00 00 00       	mov    $0x0,%esi
    4efc:	48 89 c7             	mov    %rax,%rdi
    4eff:	e8 ec e5 ff ff       	call   34f0 <memset@plt>
    4f04:	48 8b 45 f8          	mov    -0x8(%rbp),%rax
    4f08:	48 c7 40 18 00 00 00 	movq   $0x0,0x18(%rax)
    4f0f:	00 
    4f10:	48 8b 45 f8          	mov    -0x8(%rbp),%rax
    4f14:	48 c7 40 10 00 00 00 	movq   $0x0,0x10(%rax)
    4f1b:	00 
    4f1c:	90                   	nop
    4f1d:	c9                   	leave  
    4f1e:	c3                   	ret    
    4f1f:	90                   	nop

0000000000004f20 <_ZNSt10_HashtableINSt7__cxx1112basic_stringIcSt11char_traitsIcESaIcEEESt4pairIKS5_8RegisterESaIS9_ENSt8__detail10_Select1stESt8equal_toIS5_ESt4hashIS5_ENSB_18_Mod_range_hashingENSB_20_Default_ranged_hashENSB_20_Prime_rehash_policyENSB_17_Hashtable_traitsILb1ELb0ELb1EEEE21_M_deallocate_bucketsEv>:
    4f20:	f3 0f 1e fa          	endbr64 
    4f24:	55                   	push   %rbp
    4f25:	48 89 e5             	mov    %rsp,%rbp
    4f28:	48 83 ec 10          	sub    $0x10,%rsp
    4f2c:	48 89 7d f8          	mov    %rdi,-0x8(%rbp)
    4f30:	48 8b 45 f8          	mov    -0x8(%rbp),%rax
    4f34:	48 8b 50 08          	mov    0x8(%rax),%rdx
    4f38:	48 8b 45 f8          	mov    -0x8(%rbp),%rax
    4f3c:	48 8b 08             	mov    (%rax),%rcx
    4f3f:	48 8b 45 f8          	mov    -0x8(%rbp),%rax
    4f43:	48 89 ce             	mov    %rcx,%rsi
    4f46:	48 89 c7             	mov    %rax,%rdi
    4f49:	e8 90 08 00 00       	call   57de <_ZNSt10_HashtableINSt7__cxx1112basic_stringIcSt11char_traitsIcESaIcEEESt4pairIKS5_8RegisterESaIS9_ENSt8__detail10_Select1stESt8equal_toIS5_ESt4hashIS5_ENSB_18_Mod_range_hashingENSB_20_Default_ranged_hashENSB_20_Prime_rehash_policyENSB_17_Hashtable_traitsILb1ELb0ELb1EEEE21_M_deallocate_bucketsEPPNSB_15_Hash_node_baseEm>
    4f4e:	90                   	nop
    4f4f:	c9                   	leave  
    4f50:	c3                   	ret    
    4f51:	90                   	nop

0000000000004f52 <_ZNSt11_Deque_baseI12DInstructionSaIS0_EE11_Deque_implD1Ev>:
    4f52:	f3 0f 1e fa          	endbr64 
    4f56:	55                   	push   %rbp
    4f57:	48 89 e5             	mov    %rsp,%rbp
    4f5a:	48 83 ec 10          	sub    $0x10,%rsp
    4f5e:	48 89 7d f8          	mov    %rdi,-0x8(%rbp)
    4f62:	48 8b 45 f8          	mov    -0x8(%rbp),%rax
    4f66:	48 89 c7             	mov    %rax,%rdi
    4f69:	e8 64 fa ff ff       	call   49d2 <_ZNSaI12DInstructionED1Ev>
    4f6e:	90                   	nop
    4f6f:	c9                   	leave  
    4f70:	c3                   	ret    
    4f71:	90                   	nop

0000000000004f72 <_ZNSt11_Deque_baseI12DInstructionSaIS0_EEC1Ev>:
    4f72:	f3 0f 1e fa          	endbr64 
    4f76:	55                   	push   %rbp
    4f77:	48 89 e5             	mov    %rsp,%rbp
    4f7a:	53                   	push   %rbx
    4f7b:	48 83 ec 18          	sub    $0x18,%rsp
    4f7f:	48 89 7d e8          	mov    %rdi,-0x18(%rbp)
    4f83:	48 8b 45 e8          	mov    -0x18(%rbp),%rax
    4f87:	48 89 c7             	mov    %rax,%rdi
    4f8a:	e8 9b 08 00 00       	call   582a <_ZNSt11_Deque_baseI12DInstructionSaIS0_EE11_Deque_implC1Ev>
    4f8f:	48 8b 45 e8          	mov    -0x18(%rbp),%rax
    4f93:	be 00 00 00 00       	mov    $0x0,%esi
    4f98:	48 89 c7             	mov    %rax,%rdi
    4f9b:	e8 b6 08 00 00       	call   5856 <_ZNSt11_Deque_baseI12DInstructionSaIS0_EE17_M_initialize_mapEm>
    4fa0:	eb 1e                	jmp    4fc0 <_ZNSt11_Deque_baseI12DInstructionSaIS0_EEC1Ev+0x4e>
    4fa2:	f3 0f 1e fa          	endbr64 
    4fa6:	48 89 c3             	mov    %rax,%rbx
    4fa9:	48 8b 45 e8          	mov    -0x18(%rbp),%rax
    4fad:	48 89 c7             	mov    %rax,%rdi
    4fb0:	e8 9d ff ff ff       	call   4f52 <_ZNSt11_Deque_baseI12DInstructionSaIS0_EE11_Deque_implD1Ev>
    4fb5:	48 89 d8             	mov    %rbx,%rax
    4fb8:	48 89 c7             	mov    %rax,%rdi
    4fbb:	e8 c0 e7 ff ff       	call   3780 <_Unwind_Resume@plt>
    4fc0:	48 8b 5d f8          	mov    -0x8(%rbp),%rbx
    4fc4:	c9                   	leave  
    4fc5:	c3                   	ret    

0000000000004fc6 <_ZNSt11_Deque_baseI12DInstructionSaIS0_EED1Ev>:
    4fc6:	f3 0f 1e fa          	endbr64 
    4fca:	55                   	push   %rbp
    4fcb:	48 89 e5             	mov    %rsp,%rbp
    4fce:	48 83 ec 10          	sub    $0x10,%rsp
    4fd2:	48 89 7d f8          	mov    %rdi,-0x8(%rbp)
    4fd6:	48 8b 45 f8          	mov    -0x8(%rbp),%rax
    4fda:	48 8b 00             	mov    (%rax),%rax
    4fdd:	48 85 c0             	test   %rax,%rax
    4fe0:	74 41                	je     5023 <_ZNSt11_Deque_baseI12DInstructionSaIS0_EED1Ev+0x5d>
    4fe2:	48 8b 45 f8          	mov    -0x8(%rbp),%rax
    4fe6:	48 8b 40 48          	mov    0x48(%rax),%rax
    4fea:	48 8d 50 08          	lea    0x8(%rax),%rdx
    4fee:	48 8b 45 f8          	mov    -0x8(%rbp),%rax
    4ff2:	48 8b 48 28          	mov    0x28(%rax),%rcx
    4ff6:	48 8b 45 f8          	mov    -0x8(%rbp),%rax
    4ffa:	48 89 ce             	mov    %rcx,%rsi
    4ffd:	48 89 c7             	mov    %rax,%rdi
    5000:	e8 2b 0a 00 00       	call   5a30 <_ZNSt11_Deque_baseI12DInstructionSaIS0_EE16_M_destroy_nodesEPPS0_S4_>
    5005:	48 8b 45 f8          	mov    -0x8(%rbp),%rax
    5009:	48 8b 50 08          	mov    0x8(%rax),%rdx
    500d:	48 8b 45 f8          	mov    -0x8(%rbp),%rax
    5011:	48 8b 08             	mov    (%rax),%rcx
    5014:	48 8b 45 f8          	mov    -0x8(%rbp),%rax
    5018:	48 89 ce             	mov    %rcx,%rsi
    501b:	48 89 c7             	mov    %rax,%rdi
    501e:	e8 59 0a 00 00       	call   5a7c <_ZNSt11_Deque_baseI12DInstructionSaIS0_EE17_M_deallocate_mapEPPS0_m>
    5023:	48 8b 45 f8          	mov    -0x8(%rbp),%rax
    5027:	48 89 c7             	mov    %rax,%rdi
    502a:	e8 23 ff ff ff       	call   4f52 <_ZNSt11_Deque_baseI12DInstructionSaIS0_EE11_Deque_implD1Ev>
    502f:	90                   	nop
    5030:	c9                   	leave  
    5031:	c3                   	ret    

0000000000005032 <_ZNSt5dequeI12DInstructionSaIS0_EE5beginEv>:
    5032:	f3 0f 1e fa          	endbr64 
    5036:	55                   	push   %rbp
    5037:	48 89 e5             	mov    %rsp,%rbp
    503a:	48 83 ec 10          	sub    $0x10,%rsp
    503e:	48 89 7d f8          	mov    %rdi,-0x8(%rbp)
    5042:	48 89 75 f0          	mov    %rsi,-0x10(%rbp)
    5046:	48 8b 45 f0          	mov    -0x10(%rbp),%rax
    504a:	48 8d 50 10          	lea    0x10(%rax),%rdx
    504e:	48 8b 45 f8          	mov    -0x8(%rbp),%rax
    5052:	48 89 d6             	mov    %rdx,%rsi
    5055:	48 89 c7             	mov    %rax,%rdi
    5058:	e8 93 0a 00 00       	call   5af0 <_ZNSt15_Deque_iteratorI12DInstructionRS0_PS0_EC1ERKS3_>
    505d:	48 8b 45 f8          	mov    -0x8(%rbp),%rax
    5061:	c9                   	leave  
    5062:	c3                   	ret    
    5063:	90                   	nop

0000000000005064 <_ZNSt5dequeI12DInstructionSaIS0_EE3endEv>:
    5064:	f3 0f 1e fa          	endbr64 
    5068:	55                   	push   %rbp
    5069:	48 89 e5             	mov    %rsp,%rbp
    506c:	48 83 ec 10          	sub    $0x10,%rsp
    5070:	48 89 7d f8          	mov    %rdi,-0x8(%rbp)
    5074:	48 89 75 f0          	mov    %rsi,-0x10(%rbp)
    5078:	48 8b 45 f0          	mov    -0x10(%rbp),%rax
    507c:	48 8d 50 30          	lea    0x30(%rax),%rdx
    5080:	48 8b 45 f8          	mov    -0x8(%rbp),%rax
    5084:	48 89 d6             	mov    %rdx,%rsi
    5087:	48 89 c7             	mov    %rax,%rdi
    508a:	e8 61 0a 00 00       	call   5af0 <_ZNSt15_Deque_iteratorI12DInstructionRS0_PS0_EC1ERKS3_>
    508f:	48 8b 45 f8          	mov    -0x8(%rbp),%rax
    5093:	c9                   	leave  
    5094:	c3                   	ret    
    5095:	90                   	nop

0000000000005096 <_ZNSt11_Deque_baseI12DInstructionSaIS0_EE19_M_get_Tp_allocatorEv>:
    5096:	f3 0f 1e fa          	endbr64 
    509a:	55                   	push   %rbp
    509b:	48 89 e5             	mov    %rsp,%rbp
    509e:	48 89 7d f8          	mov    %rdi,-0x8(%rbp)
    50a2:	48 8b 45 f8          	mov    -0x8(%rbp),%rax
    50a6:	5d                   	pop    %rbp
    50a7:	c3                   	ret    

00000000000050a8 <_ZNSt5dequeI12DInstructionSaIS0_EE15_M_destroy_dataESt15_Deque_iteratorIS0_RS0_PS0_ES6_RKS1_>:
    50a8:	f3 0f 1e fa          	endbr64 
    50ac:	55                   	push   %rbp
    50ad:	48 89 e5             	mov    %rsp,%rbp
    50b0:	48 83 ec 70          	sub    $0x70,%rsp
    50b4:	48 89 7d a8          	mov    %rdi,-0x58(%rbp)
    50b8:	48 89 75 a0          	mov    %rsi,-0x60(%rbp)
    50bc:	48 89 55 98          	mov    %rdx,-0x68(%rbp)
    50c0:	48 89 4d 90          	mov    %rcx,-0x70(%rbp)
    50c4:	64 48 8b 04 25 28 00 	mov    %fs:0x28,%rax
    50cb:	00 00 
    50cd:	48 89 45 f8          	mov    %rax,-0x8(%rbp)
    50d1:	31 c0                	xor    %eax,%eax
    50d3:	48 8b 55 98          	mov    -0x68(%rbp),%rdx
    50d7:	48 8d 45 d0          	lea    -0x30(%rbp),%rax
    50db:	48 89 d6             	mov    %rdx,%rsi
    50de:	48 89 c7             	mov    %rax,%rdi
    50e1:	e8 0a 0a 00 00       	call   5af0 <_ZNSt15_Deque_iteratorI12DInstructionRS0_PS0_EC1ERKS3_>
    50e6:	48 8b 55 a0          	mov    -0x60(%rbp),%rdx
    50ea:	48 8d 45 b0          	lea    -0x50(%rbp),%rax
    50ee:	48 89 d6             	mov    %rdx,%rsi
    50f1:	48 89 c7             	mov    %rax,%rdi
    50f4:	e8 f7 09 00 00       	call   5af0 <_ZNSt15_Deque_iteratorI12DInstructionRS0_PS0_EC1ERKS3_>
    50f9:	48 8d 55 d0          	lea    -0x30(%rbp),%rdx
    50fd:	48 8d 4d b0          	lea    -0x50(%rbp),%rcx
    5101:	48 8b 45 a8          	mov    -0x58(%rbp),%rax
    5105:	48 89 ce             	mov    %rcx,%rsi
    5108:	48 89 c7             	mov    %rax,%rdi
    510b:	e8 32 0a 00 00       	call   5b42 <_ZNSt5dequeI12DInstructionSaIS0_EE19_M_destroy_data_auxESt15_Deque_iteratorIS0_RS0_PS0_ES6_>
    5110:	90                   	nop
    5111:	48 8b 45 f8          	mov    -0x8(%rbp),%rax
    5115:	64 48 2b 04 25 28 00 	sub    %fs:0x28,%rax
    511c:	00 00 
    511e:	74 05                	je     5125 <_ZNSt5dequeI12DInstructionSaIS0_EE15_M_destroy_dataESt15_Deque_iteratorIS0_RS0_PS0_ES6_RKS1_+0x7d>
    5120:	e8 4b e5 ff ff       	call   3670 <__stack_chk_fail@plt>
    5125:	c9                   	leave  
    5126:	c3                   	ret    
    5127:	90                   	nop

0000000000005128 <_ZNSaINSt8__detail10_Hash_nodeISt4pairIKNSt7__cxx1112basic_stringIcSt11char_traitsIcESaIcEEEiELb1EEEEC1Ev>:
    5128:	f3 0f 1e fa          	endbr64 
    512c:	55                   	push   %rbp
    512d:	48 89 e5             	mov    %rsp,%rbp
    5130:	48 83 ec 10          	sub    $0x10,%rsp
    5134:	48 89 7d f8          	mov    %rdi,-0x8(%rbp)
    5138:	48 8b 45 f8          	mov    -0x8(%rbp),%rax
    513c:	48 89 c7             	mov    %rax,%rdi
    513f:	e8 14 0b 00 00       	call   5c58 <_ZNSt15__new_allocatorINSt8__detail10_Hash_nodeISt4pairIKNSt7__cxx1112basic_stringIcSt11char_traitsIcESaIcEEEiELb1EEEEC1Ev>
    5144:	90                   	nop
    5145:	c9                   	leave  
    5146:	c3                   	ret    
    5147:	90                   	nop

0000000000005148 <_ZNSt15__new_allocatorINSt8__detail10_Hash_nodeISt4pairIKNSt7__cxx1112basic_stringIcSt11char_traitsIcESaIcEEEiELb1EEEED1Ev>:
    5148:	f3 0f 1e fa          	endbr64 
    514c:	55                   	push   %rbp
    514d:	48 89 e5             	mov    %rsp,%rbp
    5150:	48 89 7d f8          	mov    %rdi,-0x8(%rbp)
    5154:	90                   	nop
    5155:	5d                   	pop    %rbp
    5156:	c3                   	ret    
    5157:	90                   	nop

0000000000005158 <_ZNSt10_HashtableINSt7__cxx1112basic_stringIcSt11char_traitsIcESaIcEEESt4pairIKS5_iESaIS8_ENSt8__detail10_Select1stESt8equal_toIS5_ESt4hashIS5_ENSA_18_Mod_range_hashingENSA_20_Default_ranged_hashENSA_20_Prime_rehash_policyENSA_17_Hashtable_traitsILb1ELb0ELb1EEEE5clearEv>:
    5158:	f3 0f 1e fa          	endbr64 
    515c:	55                   	push   %rbp
    515d:	48 89 e5             	mov    %rsp,%rbp
    5160:	48 83 ec 10          	sub    $0x10,%rsp
    5164:	48 89 7d f8          	mov    %rdi,-0x8(%rbp)
    5168:	48 8b 45 f8          	mov    -0x8(%rbp),%rax
    516c:	48 89 c7             	mov    %rax,%rdi
    516f:	e8 f4 0a 00 00       	call   5c68 <_ZNKSt10_HashtableINSt7__cxx1112basic_stringIcSt11char_traitsIcESaIcEEESt4pairIKS5_iESaIS8_ENSt8__detail10_Select1stESt8equal_toIS5_ESt4hashIS5_ENSA_18_Mod_range_hashingENSA_20_Default_ranged_hashENSA_20_Prime_rehash_policyENSA_17_Hashtable_traitsILb1ELb0ELb1EEEE8_M_beginEv>
    5174:	48 89 c2             	mov    %rax,%rdx
    5177:	48 8b 45 f8          	mov    -0x8(%rbp),%rax
    517b:	48 89 d6             	mov    %rdx,%rsi
    517e:	48 89 c7             	mov    %rax,%rdi
    5181:	e8 f8 0a 00 00       	call   5c7e <_ZNSt8__detail16_Hashtable_allocISaINS_10_Hash_nodeISt4pairIKNSt7__cxx1112basic_stringIcSt11char_traitsIcESaIcEEEiELb1EEEEE19_M_deallocate_nodesEPSB_>
    5186:	48 8b 45 f8          	mov    -0x8(%rbp),%rax
    518a:	48 8b 40 08          	mov    0x8(%rax),%rax
    518e:	48 8d 14 c5 00 00 00 	lea    0x0(,%rax,8),%rdx
    5195:	00 
    5196:	48 8b 45 f8          	mov    -0x8(%rbp),%rax
    519a:	48 8b 00             	mov    (%rax),%rax
    519d:	be 00 00 00 00       	mov    $0x0,%esi
    51a2:	48 89 c7             	mov    %rax,%rdi
    51a5:	e8 46 e3 ff ff       	call   34f0 <memset@plt>
    51aa:	48 8b 45 f8          	mov    -0x8(%rbp),%rax
    51ae:	48 c7 40 18 00 00 00 	movq   $0x0,0x18(%rax)
    51b5:	00 
    51b6:	48 8b 45 f8          	mov    -0x8(%rbp),%rax
    51ba:	48 c7 40 10 00 00 00 	movq   $0x0,0x10(%rax)
    51c1:	00 
    51c2:	90                   	nop
    51c3:	c9                   	leave  
    51c4:	c3                   	ret    
    51c5:	90                   	nop

00000000000051c6 <_ZNSt10_HashtableINSt7__cxx1112basic_stringIcSt11char_traitsIcESaIcEEESt4pairIKS5_iESaIS8_ENSt8__detail10_Select1stESt8equal_toIS5_ESt4hashIS5_ENSA_18_Mod_range_hashingENSA_20_Default_ranged_hashENSA_20_Prime_rehash_policyENSA_17_Hashtable_traitsILb1ELb0ELb1EEEE21_M_deallocate_bucketsEv>:
    51c6:	f3 0f 1e fa          	endbr64 
    51ca:	55                   	push   %rbp
    51cb:	48 89 e5             	mov    %rsp,%rbp
    51ce:	48 83 ec 10          	sub    $0x10,%rsp
    51d2:	48 89 7d f8          	mov    %rdi,-0x8(%rbp)
    51d6:	48 8b 45 f8          	mov    -0x8(%rbp),%rax
    51da:	48 8b 50 08          	mov    0x8(%rax),%rdx
    51de:	48 8b 45 f8          	mov    -0x8(%rbp),%rax
    51e2:	48 8b 08             	mov    (%rax),%rcx
    51e5:	48 8b 45 f8          	mov    -0x8(%rbp),%rax
    51e9:	48 89 ce             	mov    %rcx,%rsi
    51ec:	48 89 c7             	mov    %rax,%rdi
    51ef:	e8 d6 0a 00 00       	call   5cca <_ZNSt10_HashtableINSt7__cxx1112basic_stringIcSt11char_traitsIcESaIcEEESt4pairIKS5_iESaIS8_ENSt8__detail10_Select1stESt8equal_toIS5_ESt4hashIS5_ENSA_18_Mod_range_hashingENSA_20_Default_ranged_hashENSA_20_Prime_rehash_policyENSA_17_Hashtable_traitsILb1ELb0ELb1EEEE21_M_deallocate_bucketsEPPNSA_15_Hash_node_baseEm>
    51f4:	90                   	nop
    51f5:	c9                   	leave  
    51f6:	c3                   	ret    
    51f7:	90                   	nop

00000000000051f8 <_ZNSaINSt8__detail10_Hash_nodeISt4pairIKNSt7__cxx1112basic_stringIcSt11char_traitsIcESaIcEEE12DInstructionELb1EEEEC1Ev>:
    51f8:	f3 0f 1e fa          	endbr64 
    51fc:	55                   	push   %rbp
    51fd:	48 89 e5             	mov    %rsp,%rbp
    5200:	48 83 ec 10          	sub    $0x10,%rsp
    5204:	48 89 7d f8          	mov    %rdi,-0x8(%rbp)
    5208:	48 8b 45 f8          	mov    -0x8(%rbp),%rax
    520c:	48 89 c7             	mov    %rax,%rdi
    520f:	e8 02 0b 00 00       	call   5d16 <_ZNSt15__new_allocatorINSt8__detail10_Hash_nodeISt4pairIKNSt7__cxx1112basic_stringIcSt11char_traitsIcESaIcEEE12DInstructionELb1EEEEC1Ev>
    5214:	90                   	nop
    5215:	c9                   	leave  
    5216:	c3                   	ret    
    5217:	90                   	nop

0000000000005218 <_ZNSt15__new_allocatorINSt8__detail10_Hash_nodeISt4pairIKNSt7__cxx1112basic_stringIcSt11char_traitsIcESaIcEEE12DInstructionELb1EEEED1Ev>:
    5218:	f3 0f 1e fa          	endbr64 
    521c:	55                   	push   %rbp
    521d:	48 89 e5             	mov    %rsp,%rbp
    5220:	48 89 7d f8          	mov    %rdi,-0x8(%rbp)
    5224:	90                   	nop
    5225:	5d                   	pop    %rbp
    5226:	c3                   	ret    
    5227:	90                   	nop

0000000000005228 <_ZNSt10_HashtableINSt7__cxx1112basic_stringIcSt11char_traitsIcESaIcEEESt4pairIKS5_12DInstructionESaIS9_ENSt8__detail10_Select1stESt8equal_toIS5_ESt4hashIS5_ENSB_18_Mod_range_hashingENSB_20_Default_ranged_hashENSB_20_Prime_rehash_policyENSB_17_Hashtable_traitsILb1ELb0ELb1EEEE5clearEv>:
    5228:	f3 0f 1e fa          	endbr64 
    522c:	55                   	push   %rbp
    522d:	48 89 e5             	mov    %rsp,%rbp
    5230:	48 83 ec 10          	sub    $0x10,%rsp
    5234:	48 89 7d f8          	mov    %rdi,-0x8(%rbp)
    5238:	48 8b 45 f8          	mov    -0x8(%rbp),%rax
    523c:	48 89 c7             	mov    %rax,%rdi
    523f:	e8 e2 0a 00 00       	call   5d26 <_ZNKSt10_HashtableINSt7__cxx1112basic_stringIcSt11char_traitsIcESaIcEEESt4pairIKS5_12DInstructionESaIS9_ENSt8__detail10_Select1stESt8equal_toIS5_ESt4hashIS5_ENSB_18_Mod_range_hashingENSB_20_Default_ranged_hashENSB_20_Prime_rehash_policyENSB_17_Hashtable_traitsILb1ELb0ELb1EEEE8_M_beginEv>
    5244:	48 89 c2             	mov    %rax,%rdx
    5247:	48 8b 45 f8          	mov    -0x8(%rbp),%rax
    524b:	48 89 d6             	mov    %rdx,%rsi
    524e:	48 89 c7             	mov    %rax,%rdi
    5251:	e8 e6 0a 00 00       	call   5d3c <_ZNSt8__detail16_Hashtable_allocISaINS_10_Hash_nodeISt4pairIKNSt7__cxx1112basic_stringIcSt11char_traitsIcESaIcEEE12DInstructionELb1EEEEE19_M_deallocate_nodesEPSC_>
    5256:	48 8b 45 f8          	mov    -0x8(%rbp),%rax
    525a:	48 8b 40 08          	mov    0x8(%rax),%rax
    525e:	48 8d 14 c5 00 00 00 	lea    0x0(,%rax,8),%rdx
    5265:	00 
    5266:	48 8b 45 f8          	mov    -0x8(%rbp),%rax
    526a:	48 8b 00             	mov    (%rax),%rax
    526d:	be 00 00 00 00       	mov    $0x0,%esi
    5272:	48 89 c7             	mov    %rax,%rdi
    5275:	e8 76 e2 ff ff       	call   34f0 <memset@plt>
    527a:	48 8b 45 f8          	mov    -0x8(%rbp),%rax
    527e:	48 c7 40 18 00 00 00 	movq   $0x0,0x18(%rax)
    5285:	00 
    5286:	48 8b 45 f8          	mov    -0x8(%rbp),%rax
    528a:	48 c7 40 10 00 00 00 	movq   $0x0,0x10(%rax)
    5291:	00 
    5292:	90                   	nop
    5293:	c9                   	leave  
    5294:	c3                   	ret    
    5295:	90                   	nop

0000000000005296 <_ZNSt10_HashtableINSt7__cxx1112basic_stringIcSt11char_traitsIcESaIcEEESt4pairIKS5_12DInstructionESaIS9_ENSt8__detail10_Select1stESt8equal_toIS5_ESt4hashIS5_ENSB_18_Mod_range_hashingENSB_20_Default_ranged_hashENSB_20_Prime_rehash_policyENSB_17_Hashtable_traitsILb1ELb0ELb1EEEE21_M_deallocate_bucketsEv>:
    5296:	f3 0f 1e fa          	endbr64 
    529a:	55                   	push   %rbp
    529b:	48 89 e5             	mov    %rsp,%rbp
    529e:	48 83 ec 10          	sub    $0x10,%rsp
    52a2:	48 89 7d f8          	mov    %rdi,-0x8(%rbp)
    52a6:	48 8b 45 f8          	mov    -0x8(%rbp),%rax
    52aa:	48 8b 50 08          	mov    0x8(%rax),%rdx
    52ae:	48 8b 45 f8          	mov    -0x8(%rbp),%rax
    52b2:	48 8b 08             	mov    (%rax),%rcx
    52b5:	48 8b 45 f8          	mov    -0x8(%rbp),%rax
    52b9:	48 89 ce             	mov    %rcx,%rsi
    52bc:	48 89 c7             	mov    %rax,%rdi
    52bf:	e8 c4 0a 00 00       	call   5d88 <_ZNSt10_HashtableINSt7__cxx1112basic_stringIcSt11char_traitsIcESaIcEEESt4pairIKS5_12DInstructionESaIS9_ENSt8__detail10_Select1stESt8equal_toIS5_ESt4hashIS5_ENSB_18_Mod_range_hashingENSB_20_Default_ranged_hashENSB_20_Prime_rehash_policyENSB_17_Hashtable_traitsILb1ELb0ELb1EEEE21_M_deallocate_bucketsEPPNSB_15_Hash_node_baseEm>
    52c4:	90                   	nop
    52c5:	c9                   	leave  
    52c6:	c3                   	ret    
    52c7:	90                   	nop

00000000000052c8 <_ZNSaINSt8__detail10_Hash_nodeISt4pairIKNSt7__cxx1112basic_stringIcSt11char_traitsIcESaIcEEE8RegisterELb1EEEEC1Ev>:
    52c8:	f3 0f 1e fa          	endbr64 
    52cc:	55                   	push   %rbp
    52cd:	48 89 e5             	mov    %rsp,%rbp
    52d0:	48 83 ec 10          	sub    $0x10,%rsp
    52d4:	48 89 7d f8          	mov    %rdi,-0x8(%rbp)
    52d8:	48 8b 45 f8          	mov    -0x8(%rbp),%rax
    52dc:	48 89 c7             	mov    %rax,%rdi
    52df:	e8 f0 0a 00 00       	call   5dd4 <_ZNSt15__new_allocatorINSt8__detail10_Hash_nodeISt4pairIKNSt7__cxx1112basic_stringIcSt11char_traitsIcESaIcEEE8RegisterELb1EEEEC1Ev>
    52e4:	90                   	nop
    52e5:	c9                   	leave  
    52e6:	c3                   	ret    
    52e7:	90                   	nop

00000000000052e8 <_ZNSt15__new_allocatorINSt8__detail10_Hash_nodeISt4pairIKNSt7__cxx1112basic_stringIcSt11char_traitsIcESaIcEEE8RegisterELb1EEEED1Ev>:
    52e8:	f3 0f 1e fa          	endbr64 
    52ec:	55                   	push   %rbp
    52ed:	48 89 e5             	mov    %rsp,%rbp
    52f0:	48 89 7d f8          	mov    %rdi,-0x8(%rbp)
    52f4:	90                   	nop
    52f5:	5d                   	pop    %rbp
    52f6:	c3                   	ret    

00000000000052f7 <_ZNSt16allocator_traitsISaINSt7__cxx1112basic_stringIcSt11char_traitsIcESaIcEEEEE10deallocateERS6_PS5_m>:
    52f7:	f3 0f 1e fa          	endbr64 
    52fb:	55                   	push   %rbp
    52fc:	48 89 e5             	mov    %rsp,%rbp
    52ff:	48 83 ec 20          	sub    $0x20,%rsp
    5303:	48 89 7d f8          	mov    %rdi,-0x8(%rbp)
    5307:	48 89 75 f0          	mov    %rsi,-0x10(%rbp)
    530b:	48 89 55 e8          	mov    %rdx,-0x18(%rbp)
    530f:	48 8b 55 e8          	mov    -0x18(%rbp),%rdx
    5313:	48 8b 4d f0          	mov    -0x10(%rbp),%rcx
    5317:	48 8b 45 f8          	mov    -0x8(%rbp),%rax
    531b:	48 89 ce             	mov    %rcx,%rsi
    531e:	48 89 c7             	mov    %rax,%rdi
    5321:	e8 be 0a 00 00       	call   5de4 <_ZNSt15__new_allocatorINSt7__cxx1112basic_stringIcSt11char_traitsIcESaIcEEEE10deallocateEPS5_m>
    5326:	90                   	nop
    5327:	c9                   	leave  
    5328:	c3                   	ret    

0000000000005329 <_ZSt8_DestroyIPNSt7__cxx1112basic_stringIcSt11char_traitsIcESaIcEEEEvT_S7_>:
    5329:	f3 0f 1e fa          	endbr64 
    532d:	55                   	push   %rbp
    532e:	48 89 e5             	mov    %rsp,%rbp
    5331:	48 83 ec 10          	sub    $0x10,%rsp
    5335:	48 89 7d f8          	mov    %rdi,-0x8(%rbp)
    5339:	48 89 75 f0          	mov    %rsi,-0x10(%rbp)
    533d:	48 8b 55 f0          	mov    -0x10(%rbp),%rdx
    5341:	48 8b 45 f8          	mov    -0x8(%rbp),%rax
    5345:	48 89 d6             	mov    %rdx,%rsi
    5348:	48 89 c7             	mov    %rax,%rdi
    534b:	e8 c8 0a 00 00       	call   5e18 <_ZNSt12_Destroy_auxILb0EE9__destroyIPNSt7__cxx1112basic_stringIcSt11char_traitsIcESaIcEEEEEvT_S9_>
    5350:	90                   	nop
    5351:	c9                   	leave  
    5352:	c3                   	ret    
    5353:	90                   	nop

0000000000005354 <_ZNKSt10_HashtableINSt7__cxx1112basic_stringIcSt11char_traitsIcESaIcEEESt4pairIKS5_S5_ESaIS8_ENSt8__detail10_Select1stESt8equal_toIS5_ESt4hashIS5_ENSA_18_Mod_range_hashingENSA_20_Default_ranged_hashENSA_20_Prime_rehash_policyENSA_17_Hashtable_traitsILb1ELb0ELb1EEEE8_M_beginEv>:
    5354:	f3 0f 1e fa          	endbr64 
    5358:	55                   	push   %rbp
    5359:	48 89 e5             	mov    %rsp,%rbp
    535c:	48 89 7d f8          	mov    %rdi,-0x8(%rbp)
    5360:	48 8b 45 f8          	mov    -0x8(%rbp),%rax
    5364:	48 8b 40 10          	mov    0x10(%rax),%rax
    5368:	5d                   	pop    %rbp
    5369:	c3                   	ret    

000000000000536a <_ZNSt8__detail16_Hashtable_allocISaINS_10_Hash_nodeISt4pairIKNSt7__cxx1112basic_stringIcSt11char_traitsIcESaIcEEES8_ELb1EEEEE19_M_deallocate_nodesEPSB_>:
    536a:	f3 0f 1e fa          	endbr64 
    536e:	55                   	push   %rbp
    536f:	48 89 e5             	mov    %rsp,%rbp
    5372:	48 83 ec 20          	sub    $0x20,%rsp
    5376:	48 89 7d e8          	mov    %rdi,-0x18(%rbp)
    537a:	48 89 75 e0          	mov    %rsi,-0x20(%rbp)
    537e:	eb 2b                	jmp    53ab <_ZNSt8__detail16_Hashtable_allocISaINS_10_Hash_nodeISt4pairIKNSt7__cxx1112basic_stringIcSt11char_traitsIcESaIcEEES8_ELb1EEEEE19_M_deallocate_nodesEPSB_+0x41>
    5380:	48 8b 45 e0          	mov    -0x20(%rbp),%rax
    5384:	48 89 45 f8          	mov    %rax,-0x8(%rbp)
    5388:	48 8b 45 e0          	mov    -0x20(%rbp),%rax
    538c:	48 89 c7             	mov    %rax,%rdi
    538f:	e8 c2 0a 00 00       	call   5e56 <_ZNKSt8__detail10_Hash_nodeISt4pairIKNSt7__cxx1112basic_stringIcSt11char_traitsIcESaIcEEES7_ELb1EE7_M_nextEv>
    5394:	48 89 45 e0          	mov    %rax,-0x20(%rbp)
    5398:	48 8b 55 f8          	mov    -0x8(%rbp),%rdx
    539c:	48 8b 45 e8          	mov    -0x18(%rbp),%rax
    53a0:	48 89 d6             	mov    %rdx,%rsi
    53a3:	48 89 c7             	mov    %rax,%rdi
    53a6:	e8 c1 0a 00 00       	call   5e6c <_ZNSt8__detail16_Hashtable_allocISaINS_10_Hash_nodeISt4pairIKNSt7__cxx1112basic_stringIcSt11char_traitsIcESaIcEEES8_ELb1EEEEE18_M_deallocate_nodeEPSB_>
    53ab:	48 83 7d e0 00       	cmpq   $0x0,-0x20(%rbp)
    53b0:	75 ce                	jne    5380 <_ZNSt8__detail16_Hashtable_allocISaINS_10_Hash_nodeISt4pairIKNSt7__cxx1112basic_stringIcSt11char_traitsIcESaIcEEES8_ELb1EEEEE19_M_deallocate_nodesEPSB_+0x16>
    53b2:	90                   	nop
    53b3:	90                   	nop
    53b4:	c9                   	leave  
    53b5:	c3                   	ret    

00000000000053b6 <_ZNSt10_HashtableINSt7__cxx1112basic_stringIcSt11char_traitsIcESaIcEEESt4pairIKS5_S5_ESaIS8_ENSt8__detail10_Select1stESt8equal_toIS5_ESt4hashIS5_ENSA_18_Mod_range_hashingENSA_20_Default_ranged_hashENSA_20_Prime_rehash_policyENSA_17_Hashtable_traitsILb1ELb0ELb1EEEE21_M_deallocate_bucketsEPPNSA_15_Hash_node_baseEm>:
    53b6:	f3 0f 1e fa          	endbr64 
    53ba:	55                   	push   %rbp
    53bb:	48 89 e5             	mov    %rsp,%rbp
    53be:	48 83 ec 20          	sub    $0x20,%rsp
    53c2:	48 89 7d f8          	mov    %rdi,-0x8(%rbp)
    53c6:	48 89 75 f0          	mov    %rsi,-0x10(%rbp)
    53ca:	48 89 55 e8          	mov    %rdx,-0x18(%rbp)
    53ce:	48 8b 55 f0          	mov    -0x10(%rbp),%rdx
    53d2:	48 8b 45 f8          	mov    -0x8(%rbp),%rax
    53d6:	48 89 d6             	mov    %rdx,%rsi
    53d9:	48 89 c7             	mov    %rax,%rdi
    53dc:	e8 e5 0a 00 00       	call   5ec6 <_ZNKSt10_HashtableINSt7__cxx1112basic_stringIcSt11char_traitsIcESaIcEEESt4pairIKS5_S5_ESaIS8_ENSt8__detail10_Select1stESt8equal_toIS5_ESt4hashIS5_ENSA_18_Mod_range_hashingENSA_20_Default_ranged_hashENSA_20_Prime_rehash_policyENSA_17_Hashtable_traitsILb1ELb0ELb1EEEE21_M_uses_single_bucketEPPNSA_15_Hash_node_baseE>
    53e1:	84 c0                	test   %al,%al
    53e3:	75 19                	jne    53fe <_ZNSt10_HashtableINSt7__cxx1112basic_stringIcSt11char_traitsIcESaIcEEESt4pairIKS5_S5_ESaIS8_ENSt8__detail10_Select1stESt8equal_toIS5_ESt4hashIS5_ENSA_18_Mod_range_hashingENSA_20_Default_ranged_hashENSA_20_Prime_rehash_policyENSA_17_Hashtable_traitsILb1ELb0ELb1EEEE21_M_deallocate_bucketsEPPNSA_15_Hash_node_baseEm+0x48>
    53e5:	48 8b 55 e8          	mov    -0x18(%rbp),%rdx
    53e9:	48 8b 4d f0          	mov    -0x10(%rbp),%rcx
    53ed:	48 8b 45 f8          	mov    -0x8(%rbp),%rax
    53f1:	48 89 ce             	mov    %rcx,%rsi
    53f4:	48 89 c7             	mov    %rax,%rdi
    53f7:	e8 f4 0a 00 00       	call   5ef0 <_ZNSt8__detail16_Hashtable_allocISaINS_10_Hash_nodeISt4pairIKNSt7__cxx1112basic_stringIcSt11char_traitsIcESaIcEEES8_ELb1EEEEE21_M_deallocate_bucketsEPPNS_15_Hash_node_baseEm>
    53fc:	eb 01                	jmp    53ff <_ZNSt10_HashtableINSt7__cxx1112basic_stringIcSt11char_traitsIcESaIcEEESt4pairIKS5_S5_ESaIS8_ENSt8__detail10_Select1stESt8equal_toIS5_ESt4hashIS5_ENSA_18_Mod_range_hashingENSA_20_Default_ranged_hashENSA_20_Prime_rehash_policyENSA_17_Hashtable_traitsILb1ELb0ELb1EEEE21_M_deallocate_bucketsEPPNSA_15_Hash_node_baseEm+0x49>
    53fe:	90                   	nop
    53ff:	c9                   	leave  
    5400:	c3                   	ret    

0000000000005401 <_ZNSt16allocator_traitsISaI12DInstructionEE37select_on_container_copy_constructionERKS1_>:
    5401:	f3 0f 1e fa          	endbr64 
    5405:	55                   	push   %rbp
    5406:	48 89 e5             	mov    %rsp,%rbp
    5409:	48 83 ec 10          	sub    $0x10,%rsp
    540d:	48 89 7d f8          	mov    %rdi,-0x8(%rbp)
    5411:	48 89 75 f0          	mov    %rsi,-0x10(%rbp)
    5415:	48 8b 55 f0          	mov    -0x10(%rbp),%rdx
    5419:	48 8b 45 f8          	mov    -0x8(%rbp),%rax
    541d:	48 89 d6             	mov    %rdx,%rsi
    5420:	48 89 c7             	mov    %rax,%rdi
    5423:	e8 7c 0b 00 00       	call   5fa4 <_ZNSaI12DInstructionEC1ERKS0_>
    5428:	48 8b 45 f8          	mov    -0x8(%rbp),%rax
    542c:	c9                   	leave  
    542d:	c3                   	ret    

000000000000542e <_ZNSt15__new_allocatorI12DInstructionED1Ev>:
    542e:	f3 0f 1e fa          	endbr64 
    5432:	55                   	push   %rbp
    5433:	48 89 e5             	mov    %rsp,%rbp
    5436:	48 89 7d f8          	mov    %rdi,-0x8(%rbp)
    543a:	90                   	nop
    543b:	5d                   	pop    %rbp
    543c:	c3                   	ret    
    543d:	90                   	nop

000000000000543e <_ZNSt12_Vector_baseI12DInstructionSaIS0_EE12_Vector_implC1ERKS1_>:
    543e:	f3 0f 1e fa          	endbr64 
    5442:	55                   	push   %rbp
    5443:	48 89 e5             	mov    %rsp,%rbp
    5446:	48 83 ec 10          	sub    $0x10,%rsp
    544a:	48 89 7d f8          	mov    %rdi,-0x8(%rbp)
    544e:	48 89 75 f0          	mov    %rsi,-0x10(%rbp)
    5452:	48 8b 55 f0          	mov    -0x10(%rbp),%rdx
    5456:	48 8b 45 f8          	mov    -0x8(%rbp),%rax
    545a:	48 89 d6             	mov    %rdx,%rsi
    545d:	48 89 c7             	mov    %rax,%rdi
    5460:	e8 3f 0b 00 00       	call   5fa4 <_ZNSaI12DInstructionEC1ERKS0_>
    5465:	48 8b 45 f8          	mov    -0x8(%rbp),%rax
    5469:	48 89 c7             	mov    %rax,%rdi
    546c:	e8 5d 0b 00 00       	call   5fce <_ZNSt12_Vector_baseI12DInstructionSaIS0_EE17_Vector_impl_dataC1Ev>
    5471:	90                   	nop
    5472:	c9                   	leave  
    5473:	c3                   	ret    

0000000000005474 <_ZNSt12_Vector_baseI12DInstructionSaIS0_EE17_M_create_storageEm>:
    5474:	f3 0f 1e fa          	endbr64 
    5478:	55                   	push   %rbp
    5479:	48 89 e5             	mov    %rsp,%rbp
    547c:	48 83 ec 10          	sub    $0x10,%rsp
    5480:	48 89 7d f8          	mov    %rdi,-0x8(%rbp)
    5484:	48 89 75 f0          	mov    %rsi,-0x10(%rbp)
    5488:	48 8b 55 f0          	mov    -0x10(%rbp),%rdx
    548c:	48 8b 45 f8          	mov    -0x8(%rbp),%rax
    5490:	48 89 d6             	mov    %rdx,%rsi
    5493:	48 89 c7             	mov    %rax,%rdi
    5496:	e8 65 0b 00 00       	call   6000 <_ZNSt12_Vector_baseI12DInstructionSaIS0_EE11_M_allocateEm>
    549b:	48 8b 55 f8          	mov    -0x8(%rbp),%rdx
    549f:	48 89 02             	mov    %rax,(%rdx)
    54a2:	48 8b 45 f8          	mov    -0x8(%rbp),%rax
    54a6:	48 8b 10             	mov    (%rax),%rdx
    54a9:	48 8b 45 f8          	mov    -0x8(%rbp),%rax
    54ad:	48 89 50 08          	mov    %rdx,0x8(%rax)
    54b1:	48 8b 45 f8          	mov    -0x8(%rbp),%rax
    54b5:	48 8b 10             	mov    (%rax),%rdx
    54b8:	48 8b 45 f0          	mov    -0x10(%rbp),%rax
    54bc:	48 69 c0 e8 00 00 00 	imul   $0xe8,%rax,%rax
    54c3:	48 01 c2             	add    %rax,%rdx
    54c6:	48 8b 45 f8          	mov    -0x8(%rbp),%rax
    54ca:	48 89 50 10          	mov    %rdx,0x10(%rax)
    54ce:	90                   	nop
    54cf:	c9                   	leave  
    54d0:	c3                   	ret    
    54d1:	90                   	nop

00000000000054d2 <_ZNSt12_Vector_baseI12DInstructionSaIS0_EE13_M_deallocateEPS0_m>:
    54d2:	f3 0f 1e fa          	endbr64 
    54d6:	55                   	push   %rbp
    54d7:	48 89 e5             	mov    %rsp,%rbp
    54da:	48 83 ec 20          	sub    $0x20,%rsp
    54de:	48 89 7d f8          	mov    %rdi,-0x8(%rbp)
    54e2:	48 89 75 f0          	mov    %rsi,-0x10(%rbp)
    54e6:	48 89 55 e8          	mov    %rdx,-0x18(%rbp)
    54ea:	48 83 7d f0 00       	cmpq   $0x0,-0x10(%rbp)
    54ef:	74 17                	je     5508 <_ZNSt12_Vector_baseI12DInstructionSaIS0_EE13_M_deallocateEPS0_m+0x36>
    54f1:	48 8b 45 f8          	mov    -0x8(%rbp),%rax
    54f5:	48 8b 55 e8          	mov    -0x18(%rbp),%rdx
    54f9:	48 8b 4d f0          	mov    -0x10(%rbp),%rcx
    54fd:	48 89 ce             	mov    %rcx,%rsi
    5500:	48 89 c7             	mov    %rax,%rdi
    5503:	e8 2f 0b 00 00       	call   6037 <_ZNSt16allocator_traitsISaI12DInstructionEE10deallocateERS1_PS0_m>
    5508:	90                   	nop
    5509:	c9                   	leave  
    550a:	c3                   	ret    
    550b:	90                   	nop

000000000000550c <_ZN9__gnu_cxx17__normal_iteratorIPK12DInstructionSt6vectorIS1_SaIS1_EEEC1ERKS3_>:
    550c:	f3 0f 1e fa          	endbr64 
    5510:	55                   	push   %rbp
    5511:	48 89 e5             	mov    %rsp,%rbp
    5514:	48 89 7d f8          	mov    %rdi,-0x8(%rbp)
    5518:	48 89 75 f0          	mov    %rsi,-0x10(%rbp)
    551c:	48 8b 45 f0          	mov    -0x10(%rbp),%rax
    5520:	48 8b 10             	mov    (%rax),%rdx
    5523:	48 8b 45 f8          	mov    -0x8(%rbp),%rax
    5527:	48 89 10             	mov    %rdx,(%rax)
    552a:	90                   	nop
    552b:	5d                   	pop    %rbp
    552c:	c3                   	ret    

000000000000552d <_ZSt18uninitialized_copyIN9__gnu_cxx17__normal_iteratorIPK12DInstructionSt6vectorIS2_SaIS2_EEEEPS2_ET0_T_SB_SA_>:
    552d:	f3 0f 1e fa          	endbr64 
    5531:	55                   	push   %rbp
    5532:	48 89 e5             	mov    %rsp,%rbp
    5535:	48 83 ec 30          	sub    $0x30,%rsp
    5539:	48 89 7d e8          	mov    %rdi,-0x18(%rbp)
    553d:	48 89 75 e0          	mov    %rsi,-0x20(%rbp)
    5541:	48 89 55 d8          	mov    %rdx,-0x28(%rbp)
    5545:	c6 45 fe 00          	movb   $0x0,-0x2(%rbp)
    5549:	c6 45 ff 00          	movb   $0x0,-0x1(%rbp)
    554d:	48 8b 55 d8          	mov    -0x28(%rbp),%rdx
    5551:	48 8b 4d e0          	mov    -0x20(%rbp),%rcx
    5555:	48 8b 45 e8          	mov    -0x18(%rbp),%rax
    5559:	48 89 ce             	mov    %rcx,%rsi
    555c:	48 89 c7             	mov    %rax,%rdi
    555f:	e8 05 0b 00 00       	call   6069 <_ZNSt20__uninitialized_copyILb0EE13__uninit_copyIN9__gnu_cxx17__normal_iteratorIPK12DInstructionSt6vectorIS4_SaIS4_EEEEPS4_EET0_T_SD_SC_>
    5564:	c9                   	leave  
    5565:	c3                   	ret    

0000000000005566 <_ZSt8_DestroyIP12DInstructionEvT_S2_>:
    5566:	f3 0f 1e fa          	endbr64 
    556a:	55                   	push   %rbp
    556b:	48 89 e5             	mov    %rsp,%rbp
    556e:	48 83 ec 10          	sub    $0x10,%rsp
    5572:	48 89 7d f8          	mov    %rdi,-0x8(%rbp)
    5576:	48 89 75 f0          	mov    %rsi,-0x10(%rbp)
    557a:	48 8b 55 f0          	mov    -0x10(%rbp),%rdx
    557e:	48 8b 45 f8          	mov    -0x8(%rbp),%rax
    5582:	48 89 d6             	mov    %rdx,%rsi
    5585:	48 89 c7             	mov    %rax,%rdi
    5588:	e8 0d 0b 00 00       	call   609a <_ZNSt12_Destroy_auxILb0EE9__destroyIP12DInstructionEEvT_S4_>
    558d:	90                   	nop
    558e:	c9                   	leave  
    558f:	c3                   	ret    

0000000000005590 <_ZNKSt8__detail21_Hashtable_ebo_helperILi0ESaINS_10_Hash_nodeISt4pairIKNSt7__cxx1112basic_stringIcSt11char_traitsIcESaIcEEE8RegisterELb1EEEELb1EE7_M_cgetEv>:
    5590:	f3 0f 1e fa          	endbr64 
    5594:	55                   	push   %rbp
    5595:	48 89 e5             	mov    %rsp,%rbp
    5598:	48 89 7d f8          	mov    %rdi,-0x8(%rbp)
    559c:	48 8b 45 f8          	mov    -0x8(%rbp),%rax
    55a0:	5d                   	pop    %rbp
    55a1:	c3                   	ret    

00000000000055a2 <_ZNSt16allocator_traitsISaINSt8__detail10_Hash_nodeISt4pairIKNSt7__cxx1112basic_stringIcSt11char_traitsIcESaIcEEE8RegisterELb1EEEEE37select_on_container_copy_constructionERKSD_>:
    55a2:	f3 0f 1e fa          	endbr64 
    55a6:	55                   	push   %rbp
    55a7:	48 89 e5             	mov    %rsp,%rbp
    55aa:	48 83 ec 10          	sub    $0x10,%rsp
    55ae:	48 89 7d f8          	mov    %rdi,-0x8(%rbp)
    55b2:	48 89 75 f0          	mov    %rsi,-0x10(%rbp)
    55b6:	48 8b 55 f0          	mov    -0x10(%rbp),%rdx
    55ba:	48 8b 45 f8          	mov    -0x8(%rbp),%rax
    55be:	48 89 d6             	mov    %rdx,%rsi
    55c1:	48 89 c7             	mov    %rax,%rdi
    55c4:	e8 11 0b 00 00       	call   60da <_ZNSaINSt8__detail10_Hash_nodeISt4pairIKNSt7__cxx1112basic_stringIcSt11char_traitsIcESaIcEEE8RegisterELb1EEEEC1ERKSC_>
    55c9:	48 8b 45 f8          	mov    -0x8(%rbp),%rax
    55cd:	c9                   	leave  
    55ce:	c3                   	ret    

00000000000055cf <_ZSt7forwardISaINSt8__detail10_Hash_nodeISt4pairIKNSt7__cxx1112basic_stringIcSt11char_traitsIcESaIcEEE8RegisterELb1EEEEEOT_RNSt16remove_referenceISE_E4typeE>:
    55cf:	f3 0f 1e fa          	endbr64 
    55d3:	55                   	push   %rbp
    55d4:	48 89 e5             	mov    %rsp,%rbp
    55d7:	48 89 7d f8          	mov    %rdi,-0x8(%rbp)
    55db:	48 8b 45 f8          	mov    -0x8(%rbp),%rax
    55df:	5d                   	pop    %rbp
    55e0:	c3                   	ret    
    55e1:	90                   	nop

00000000000055e2 <_ZNSt8__detail21_Hashtable_ebo_helperILi0ESaINS_10_Hash_nodeISt4pairIKNSt7__cxx1112basic_stringIcSt11char_traitsIcESaIcEEE8RegisterELb1EEEELb1EEC1ISD_EEOT_>:
    55e2:	f3 0f 1e fa          	endbr64 
    55e6:	55                   	push   %rbp
    55e7:	48 89 e5             	mov    %rsp,%rbp
    55ea:	48 83 ec 10          	sub    $0x10,%rsp
    55ee:	48 89 7d f8          	mov    %rdi,-0x8(%rbp)
    55f2:	48 89 75 f0          	mov    %rsi,-0x10(%rbp)
    55f6:	48 8b 45 f0          	mov    -0x10(%rbp),%rax
    55fa:	48 89 c7             	mov    %rax,%rdi
    55fd:	e8 cd ff ff ff       	call   55cf <_ZSt7forwardISaINSt8__detail10_Hash_nodeISt4pairIKNSt7__cxx1112basic_stringIcSt11char_traitsIcESaIcEEE8RegisterELb1EEEEEOT_RNSt16remove_referenceISE_E4typeE>
    5602:	48 89 c2             	mov    %rax,%rdx
    5605:	48 8b 45 f8          	mov    -0x8(%rbp),%rax
    5609:	48 89 d6             	mov    %rdx,%rsi
    560c:	48 89 c7             	mov    %rax,%rdi
    560f:	e8 c6 0a 00 00       	call   60da <_ZNSaINSt8__detail10_Hash_nodeISt4pairIKNSt7__cxx1112basic_stringIcSt11char_traitsIcESaIcEEE8RegisterELb1EEEEC1ERKSC_>
    5614:	90                   	nop
    5615:	c9                   	leave  
    5616:	c3                   	ret    
    5617:	90                   	nop

0000000000005618 <_ZNSt10_HashtableINSt7__cxx1112basic_stringIcSt11char_traitsIcESaIcEEESt4pairIKS5_8RegisterESaIS9_ENSt8__detail10_Select1stESt8equal_toIS5_ESt4hashIS5_ENSB_18_Mod_range_hashingENSB_20_Default_ranged_hashENSB_20_Prime_rehash_policyENSB_17_Hashtable_traitsILb1ELb0ELb1EEEE19_M_allocate_bucketsEm>:
    5618:	f3 0f 1e fa          	endbr64 
    561c:	55                   	push   %rbp
    561d:	48 89 e5             	mov    %rsp,%rbp
    5620:	48 83 ec 10          	sub    $0x10,%rsp
    5624:	48 89 7d f8          	mov    %rdi,-0x8(%rbp)
    5628:	48 89 75 f0          	mov    %rsi,-0x10(%rbp)
    562c:	48 83 7d f0 01       	cmpq   $0x1,-0x10(%rbp)
    5631:	0f 94 c0             	sete   %al
    5634:	0f b6 c0             	movzbl %al,%eax
    5637:	48 85 c0             	test   %rax,%rax
    563a:	74 16                	je     5652 <_ZNSt10_HashtableINSt7__cxx1112basic_stringIcSt11char_traitsIcESaIcEEESt4pairIKS5_8RegisterESaIS9_ENSt8__detail10_Select1stESt8equal_toIS5_ESt4hashIS5_ENSB_18_Mod_range_hashingENSB_20_Default_ranged_hashENSB_20_Prime_rehash_policyENSB_17_Hashtable_traitsILb1ELb0ELb1EEEE19_M_allocate_bucketsEm+0x3a>
    563c:	48 8b 45 f8          	mov    -0x8(%rbp),%rax
    5640:	48 c7 40 30 00 00 00 	movq   $0x0,0x30(%rax)
    5647:	00 
    5648:	48 8b 45 f8          	mov    -0x8(%rbp),%rax
    564c:	48 83 c0 30          	add    $0x30,%rax
    5650:	eb 14                	jmp    5666 <_ZNSt10_HashtableINSt7__cxx1112basic_stringIcSt11char_traitsIcESaIcEEESt4pairIKS5_8RegisterESaIS9_ENSt8__detail10_Select1stESt8equal_toIS5_ESt4hashIS5_ENSB_18_Mod_range_hashingENSB_20_Default_ranged_hashENSB_20_Prime_rehash_policyENSB_17_Hashtable_traitsILb1ELb0ELb1EEEE19_M_allocate_bucketsEm+0x4e>
    5652:	48 8b 55 f0          	mov    -0x10(%rbp),%rdx
    5656:	48 8b 45 f8          	mov    -0x8(%rbp),%rax
    565a:	48 89 d6             	mov    %rdx,%rsi
    565d:	48 89 c7             	mov    %rax,%rdi
    5660:	e8 9f 0a 00 00       	call   6104 <_ZNSt8__detail16_Hashtable_allocISaINS_10_Hash_nodeISt4pairIKNSt7__cxx1112basic_stringIcSt11char_traitsIcESaIcEEE8RegisterELb1EEEEE19_M_allocate_bucketsEm>
    5665:	90                   	nop
    5666:	c9                   	leave  
    5667:	c3                   	ret    

0000000000005668 <_ZNKSt10_HashtableINSt7__cxx1112basic_stringIcSt11char_traitsIcESaIcEEESt4pairIKS5_8RegisterESaIS9_ENSt8__detail10_Select1stESt8equal_toIS5_ESt4hashIS5_ENSB_18_Mod_range_hashingENSB_20_Default_ranged_hashENSB_20_Prime_rehash_policyENSB_17_Hashtable_traitsILb1ELb0ELb1EEEE8_M_beginEv>:
    5668:	f3 0f 1e fa          	endbr64 
    566c:	55                   	push   %rbp
    566d:	48 89 e5             	mov    %rsp,%rbp
    5670:	48 89 7d f8          	mov    %rdi,-0x8(%rbp)
    5674:	48 8b 45 f8          	mov    -0x8(%rbp),%rax
    5678:	48 8b 40 10          	mov    0x10(%rax),%rax
    567c:	5d                   	pop    %rbp
    567d:	c3                   	ret    

000000000000567e <_ZNSt8__detail21_Hash_node_value_baseISt4pairIKNSt7__cxx1112basic_stringIcSt11char_traitsIcESaIcEEE8RegisterEE4_M_vEv>:
    567e:	f3 0f 1e fa          	endbr64 
    5682:	55                   	push   %rbp
    5683:	48 89 e5             	mov    %rsp,%rbp
    5686:	48 83 ec 10          	sub    $0x10,%rsp
    568a:	48 89 7d f8          	mov    %rdi,-0x8(%rbp)
    568e:	48 8b 45 f8          	mov    -0x8(%rbp),%rax
    5692:	48 89 c7             	mov    %rax,%rdi
    5695:	e8 3e 0b 00 00       	call   61d8 <_ZNSt8__detail21_Hash_node_value_baseISt4pairIKNSt7__cxx1112basic_stringIcSt11char_traitsIcESaIcEEE8RegisterEE9_M_valptrEv>
    569a:	c9                   	leave  
    569b:	c3                   	ret    

000000000000569c <_ZNSt10_HashtableINSt7__cxx1112basic_stringIcSt11char_traitsIcESaIcEEESt4pairIKS5_8RegisterESaIS9_ENSt8__detail10_Select1stESt8equal_toIS5_ESt4hashIS5_ENSB_18_Mod_range_hashingENSB_20_Default_ranged_hashENSB_20_Prime_rehash_policyENSB_17_Hashtable_traitsILb1ELb0ELb1EEEE15__fwd_value_forIRKSM_EENSt13__conditionalIXsrSt19is_lvalue_referenceIT_E5valueEE4typeIRKS9_OS9_EERS9_>:
    569c:	f3 0f 1e fa          	endbr64 
    56a0:	55                   	push   %rbp
    56a1:	48 89 e5             	mov    %rsp,%rbp
    56a4:	48 83 ec 10          	sub    $0x10,%rsp
    56a8:	48 89 7d f8          	mov    %rdi,-0x8(%rbp)
    56ac:	48 8b 45 f8          	mov    -0x8(%rbp),%rax
    56b0:	48 89 c7             	mov    %rax,%rdi
    56b3:	e8 3e 0b 00 00       	call   61f6 <_ZSt4moveIRSt4pairIKNSt7__cxx1112basic_stringIcSt11char_traitsIcESaIcEEE8RegisterEEONSt16remove_referenceIT_E4typeEOSC_>
    56b8:	c9                   	leave  
    56b9:	c3                   	ret    

00000000000056ba <_ZNKSt8__detail10_AllocNodeISaINS_10_Hash_nodeISt4pairIKNSt7__cxx1112basic_stringIcSt11char_traitsIcESaIcEEE8RegisterELb1EEEEEclIJRKSB_EEEPSC_DpOT_>:
    56ba:	f3 0f 1e fa          	endbr64 
    56be:	55                   	push   %rbp
    56bf:	48 89 e5             	mov    %rsp,%rbp
    56c2:	53                   	push   %rbx
    56c3:	48 83 ec 18          	sub    $0x18,%rsp
    56c7:	48 89 7d e8          	mov    %rdi,-0x18(%rbp)
    56cb:	48 89 75 e0          	mov    %rsi,-0x20(%rbp)
    56cf:	48 8b 45 e8          	mov    -0x18(%rbp),%rax
    56d3:	48 8b 18             	mov    (%rax),%rbx
    56d6:	48 8b 45 e0          	mov    -0x20(%rbp),%rax
    56da:	48 89 c7             	mov    %rax,%rdi
    56dd:	e8 26 0b 00 00       	call   6208 <_ZSt7forwardIRKSt4pairIKNSt7__cxx1112basic_stringIcSt11char_traitsIcESaIcEEE8RegisterEEOT_RNSt16remove_referenceISC_E4typeE>
    56e2:	48 89 c6             	mov    %rax,%rsi
    56e5:	48 89 df             	mov    %rbx,%rdi
    56e8:	e8 4d 0b 00 00       	call   623a <_ZNSt8__detail16_Hashtable_allocISaINS_10_Hash_nodeISt4pairIKNSt7__cxx1112basic_stringIcSt11char_traitsIcESaIcEEE8RegisterELb1EEEEE16_M_allocate_nodeIJRKSB_EEEPSC_DpOT_>
    56ed:	48 8b 5d f8          	mov    -0x8(%rbp),%rbx
    56f1:	c9                   	leave  
    56f2:	c3                   	ret    
    56f3:	90                   	nop

00000000000056f4 <_ZNKSt8__detail15_Hash_code_baseINSt7__cxx1112basic_stringIcSt11char_traitsIcESaIcEEESt4pairIKS6_8RegisterENS_10_Select1stESt4hashIS6_ENS_18_Mod_range_hashingENS_20_Default_ranged_hashELb1EE12_M_copy_codeERNS_21_Hash_node_code_cacheILb1EEERKSI_>:
    56f4:	f3 0f 1e fa          	endbr64 
    56f8:	55                   	push   %rbp
    56f9:	48 89 e5             	mov    %rsp,%rbp
    56fc:	48 89 7d f8          	mov    %rdi,-0x8(%rbp)
    5700:	48 89 75 f0          	mov    %rsi,-0x10(%rbp)
    5704:	48 89 55 e8          	mov    %rdx,-0x18(%rbp)
    5708:	48 8b 45 e8          	mov    -0x18(%rbp),%rax
    570c:	48 8b 10             	mov    (%rax),%rdx
    570f:	48 8b 45 f0          	mov    -0x10(%rbp),%rax
    5713:	48 89 10             	mov    %rdx,(%rax)
    5716:	90                   	nop
    5717:	5d                   	pop    %rbp
    5718:	c3                   	ret    
    5719:	90                   	nop

000000000000571a <_ZNSt10_HashtableINSt7__cxx1112basic_stringIcSt11char_traitsIcESaIcEEESt4pairIKS5_8RegisterESaIS9_ENSt8__detail10_Select1stESt8equal_toIS5_ESt4hashIS5_ENSB_18_Mod_range_hashingENSB_20_Default_ranged_hashENSB_20_Prime_rehash_policyENSB_17_Hashtable_traitsILb1ELb0ELb1EEEE16_M_update_bbeginEPNSB_10_Hash_nodeIS9_Lb1EEE>:
    571a:	f3 0f 1e fa          	endbr64 
    571e:	55                   	push   %rbp
    571f:	48 89 e5             	mov    %rsp,%rbp
    5722:	48 83 ec 10          	sub    $0x10,%rsp
    5726:	48 89 7d f8          	mov    %rdi,-0x8(%rbp)
    572a:	48 89 75 f0          	mov    %rsi,-0x10(%rbp)
    572e:	48 8b 45 f8          	mov    -0x8(%rbp),%rax
    5732:	48 8b 55 f0          	mov    -0x10(%rbp),%rdx
    5736:	48 89 50 10          	mov    %rdx,0x10(%rax)
    573a:	48 8b 45 f8          	mov    -0x8(%rbp),%rax
    573e:	48 89 c7             	mov    %rax,%rdi
    5741:	e8 e8 0b 00 00       	call   632e <_ZNSt10_HashtableINSt7__cxx1112basic_stringIcSt11char_traitsIcESaIcEEESt4pairIKS5_8RegisterESaIS9_ENSt8__detail10_Select1stESt8equal_toIS5_ESt4hashIS5_ENSB_18_Mod_range_hashingENSB_20_Default_ranged_hashENSB_20_Prime_rehash_policyENSB_17_Hashtable_traitsILb1ELb0ELb1EEEE16_M_update_bbeginEv>
    5746:	90                   	nop
    5747:	c9                   	leave  
    5748:	c3                   	ret    
    5749:	90                   	nop

000000000000574a <_ZNKSt8__detail10_Hash_nodeISt4pairIKNSt7__cxx1112basic_stringIcSt11char_traitsIcESaIcEEE8RegisterELb1EE7_M_nextEv>:
    574a:	f3 0f 1e fa          	endbr64 
    574e:	55                   	push   %rbp
    574f:	48 89 e5             	mov    %rsp,%rbp
    5752:	48 89 7d f8          	mov    %rdi,-0x8(%rbp)
    5756:	48 8b 45 f8          	mov    -0x8(%rbp),%rax
    575a:	48 8b 00             	mov    (%rax),%rax
    575d:	5d                   	pop    %rbp
    575e:	c3                   	ret    
    575f:	90                   	nop

0000000000005760 <_ZNKSt10_HashtableINSt7__cxx1112basic_stringIcSt11char_traitsIcESaIcEEESt4pairIKS5_8RegisterESaIS9_ENSt8__detail10_Select1stESt8equal_toIS5_ESt4hashIS5_ENSB_18_Mod_range_hashingENSB_20_Default_ranged_hashENSB_20_Prime_rehash_policyENSB_17_Hashtable_traitsILb1ELb0ELb1EEEE15_M_bucket_indexERKNSB_16_Hash_node_valueIS9_Lb1EEE>:
    5760:	f3 0f 1e fa          	endbr64 
    5764:	55                   	push   %rbp
    5765:	48 89 e5             	mov    %rsp,%rbp
    5768:	48 83 ec 10          	sub    $0x10,%rsp
    576c:	48 89 7d f8          	mov    %rdi,-0x8(%rbp)
    5770:	48 89 75 f0          	mov    %rsi,-0x10(%rbp)
    5774:	48 8b 45 f8          	mov    -0x8(%rbp),%rax
    5778:	48 8b 50 08          	mov    0x8(%rax),%rdx
    577c:	48 8b 4d f0          	mov    -0x10(%rbp),%rcx
    5780:	48 8b 45 f8          	mov    -0x8(%rbp),%rax
    5784:	48 89 ce             	mov    %rcx,%rsi
    5787:	48 89 c7             	mov    %rax,%rdi
    578a:	e8 0b 0c 00 00       	call   639a <_ZNKSt8__detail15_Hash_code_baseINSt7__cxx1112basic_stringIcSt11char_traitsIcESaIcEEESt4pairIKS6_8RegisterENS_10_Select1stESt4hashIS6_ENS_18_Mod_range_hashingENS_20_Default_ranged_hashELb1EE15_M_bucket_indexERKNS_16_Hash_node_valueISA_Lb1EEEm>
    578f:	c9                   	leave  
    5790:	c3                   	ret    
    5791:	90                   	nop

0000000000005792 <_ZNSt8__detail16_Hashtable_allocISaINS_10_Hash_nodeISt4pairIKNSt7__cxx1112basic_stringIcSt11char_traitsIcESaIcEEE8RegisterELb1EEEEE19_M_deallocate_nodesEPSC_>:
    5792:	f3 0f 1e fa          	endbr64 
    5796:	55                   	push   %rbp
    5797:	48 89 e5             	mov    %rsp,%rbp
    579a:	48 83 ec 20          	sub    $0x20,%rsp
    579e:	48 89 7d e8          	mov    %rdi,-0x18(%rbp)
    57a2:	48 89 75 e0          	mov    %rsi,-0x20(%rbp)
    57a6:	eb 2b                	jmp    57d3 <_ZNSt8__detail16_Hashtable_allocISaINS_10_Hash_nodeISt4pairIKNSt7__cxx1112basic_stringIcSt11char_traitsIcESaIcEEE8RegisterELb1EEEEE19_M_deallocate_nodesEPSC_+0x41>
    57a8:	48 8b 45 e0          	mov    -0x20(%rbp),%rax
    57ac:	48 89 45 f8          	mov    %rax,-0x8(%rbp)
    57b0:	48 8b 45 e0          	mov    -0x20(%rbp),%rax
    57b4:	48 89 c7             	mov    %rax,%rdi
    57b7:	e8 8e ff ff ff       	call   574a <_ZNKSt8__detail10_Hash_nodeISt4pairIKNSt7__cxx1112basic_stringIcSt11char_traitsIcESaIcEEE8RegisterELb1EE7_M_nextEv>
    57bc:	48 89 45 e0          	mov    %rax,-0x20(%rbp)
    57c0:	48 8b 55 f8          	mov    -0x8(%rbp),%rdx
    57c4:	48 8b 45 e8          	mov    -0x18(%rbp),%rax
    57c8:	48 89 d6             	mov    %rdx,%rsi
    57cb:	48 89 c7             	mov    %rax,%rdi
    57ce:	e8 1f 0c 00 00       	call   63f2 <_ZNSt8__detail16_Hashtable_allocISaINS_10_Hash_nodeISt4pairIKNSt7__cxx1112basic_stringIcSt11char_traitsIcESaIcEEE8RegisterELb1EEEEE18_M_deallocate_nodeEPSC_>
    57d3:	48 83 7d e0 00       	cmpq   $0x0,-0x20(%rbp)
    57d8:	75 ce                	jne    57a8 <_ZNSt8__detail16_Hashtable_allocISaINS_10_Hash_nodeISt4pairIKNSt7__cxx1112basic_stringIcSt11char_traitsIcESaIcEEE8RegisterELb1EEEEE19_M_deallocate_nodesEPSC_+0x16>
    57da:	90                   	nop
    57db:	90                   	nop
    57dc:	c9                   	leave  
    57dd:	c3                   	ret    

00000000000057de <_ZNSt10_HashtableINSt7__cxx1112basic_stringIcSt11char_traitsIcESaIcEEESt4pairIKS5_8RegisterESaIS9_ENSt8__detail10_Select1stESt8equal_toIS5_ESt4hashIS5_ENSB_18_Mod_range_hashingENSB_20_Default_ranged_hashENSB_20_Prime_rehash_policyENSB_17_Hashtable_traitsILb1ELb0ELb1EEEE21_M_deallocate_bucketsEPPNSB_15_Hash_node_baseEm>:
    57de:	f3 0f 1e fa          	endbr64 
    57e2:	55                   	push   %rbp
    57e3:	48 89 e5             	mov    %rsp,%rbp
    57e6:	48 83 ec 20          	sub    $0x20,%rsp
    57ea:	48 89 7d f8          	mov    %rdi,-0x8(%rbp)
    57ee:	48 89 75 f0          	mov    %rsi,-0x10(%rbp)
    57f2:	48 89 55 e8          	mov    %rdx,-0x18(%rbp)
    57f6:	48 8b 55 f0          	mov    -0x10(%rbp),%rdx
    57fa:	48 8b 45 f8          	mov    -0x8(%rbp),%rax
    57fe:	48 89 d6             	mov    %rdx,%rsi
    5801:	48 89 c7             	mov    %rax,%rdi
    5804:	e8 43 0c 00 00       	call   644c <_ZNKSt10_HashtableINSt7__cxx1112basic_stringIcSt11char_traitsIcESaIcEEESt4pairIKS5_8RegisterESaIS9_ENSt8__detail10_Select1stESt8equal_toIS5_ESt4hashIS5_ENSB_18_Mod_range_hashingENSB_20_Default_ranged_hashENSB_20_Prime_rehash_policyENSB_17_Hashtable_traitsILb1ELb0ELb1EEEE21_M_uses_single_bucketEPPNSB_15_Hash_node_baseE>
    5809:	84 c0                	test   %al,%al
    580b:	75 19                	jne    5826 <_ZNSt10_HashtableINSt7__cxx1112basic_stringIcSt11char_traitsIcESaIcEEESt4pairIKS5_8RegisterESaIS9_ENSt8__detail10_Select1stESt8equal_toIS5_ESt4hashIS5_ENSB_18_Mod_range_hashingENSB_20_Default_ranged_hashENSB_20_Prime_rehash_policyENSB_17_Hashtable_traitsILb1ELb0ELb1EEEE21_M_deallocate_bucketsEPPNSB_15_Hash_node_baseEm+0x48>
    580d:	48 8b 55 e8          	mov    -0x18(%rbp),%rdx
    5811:	48 8b 4d f0          	mov    -0x10(%rbp),%rcx
    5815:	48 8b 45 f8          	mov    -0x8(%rbp),%rax
    5819:	48 89 ce             	mov    %rcx,%rsi
    581c:	48 89 c7             	mov    %rax,%rdi
    581f:	e8 52 0c 00 00       	call   6476 <_ZNSt8__detail16_Hashtable_allocISaINS_10_Hash_nodeISt4pairIKNSt7__cxx1112basic_stringIcSt11char_traitsIcESaIcEEE8RegisterELb1EEEEE21_M_deallocate_bucketsEPPNS_15_Hash_node_baseEm>
    5824:	eb 01                	jmp    5827 <_ZNSt10_HashtableINSt7__cxx1112basic_stringIcSt11char_traitsIcESaIcEEESt4pairIKS5_8RegisterESaIS9_ENSt8__detail10_Select1stESt8equal_toIS5_ESt4hashIS5_ENSB_18_Mod_range_hashingENSB_20_Default_ranged_hashENSB_20_Prime_rehash_policyENSB_17_Hashtable_traitsILb1ELb0ELb1EEEE21_M_deallocate_bucketsEPPNSB_15_Hash_node_baseEm+0x49>
    5826:	90                   	nop
    5827:	c9                   	leave  
    5828:	c3                   	ret    
    5829:	90                   	nop

000000000000582a <_ZNSt11_Deque_baseI12DInstructionSaIS0_EE11_Deque_implC1Ev>:
    582a:	f3 0f 1e fa          	endbr64 
    582e:	55                   	push   %rbp
    582f:	48 89 e5             	mov    %rsp,%rbp
    5832:	48 83 ec 10          	sub    $0x10,%rsp
    5836:	48 89 7d f8          	mov    %rdi,-0x8(%rbp)
    583a:	48 8b 45 f8          	mov    -0x8(%rbp),%rax
    583e:	48 89 c7             	mov    %rax,%rdi
    5841:	e8 e4 0c 00 00       	call   652a <_ZNSaI12DInstructionEC1Ev>
    5846:	48 8b 45 f8          	mov    -0x8(%rbp),%rax
    584a:	48 89 c7             	mov    %rax,%rdi
    584d:	e8 f8 0c 00 00       	call   654a <_ZNSt11_Deque_baseI12DInstructionSaIS0_EE16_Deque_impl_dataC1Ev>
    5852:	90                   	nop
    5853:	c9                   	leave  
    5854:	c3                   	ret    
    5855:	90                   	nop

0000000000005856 <_ZNSt11_Deque_baseI12DInstructionSaIS0_EE17_M_initialize_mapEm>:
    5856:	f3 0f 1e fa          	endbr64 
    585a:	55                   	push   %rbp
    585b:	48 89 e5             	mov    %rsp,%rbp
    585e:	53                   	push   %rbx
    585f:	48 83 ec 48          	sub    $0x48,%rsp
    5863:	48 89 7d b8          	mov    %rdi,-0x48(%rbp)
    5867:	48 89 75 b0          	mov    %rsi,-0x50(%rbp)
    586b:	64 48 8b 04 25 28 00 	mov    %fs:0x28,%rax
    5872:	00 00 
    5874:	48 89 45 e8          	mov    %rax,-0x18(%rbp)
    5878:	31 c0                	xor    %eax,%eax
    587a:	bf e8 00 00 00       	mov    $0xe8,%edi
    587f:	e8 01 e3 ff ff       	call   3b85 <_ZSt16__deque_buf_sizem>
    5884:	48 89 c3             	mov    %rax,%rbx
    5887:	48 8b 45 b0          	mov    -0x50(%rbp),%rax
    588b:	ba 00 00 00 00       	mov    $0x0,%edx
    5890:	48 f7 f3             	div    %rbx
    5893:	48 83 c0 01          	add    $0x1,%rax
    5897:	48 89 45 d0          	mov    %rax,-0x30(%rbp)
    589b:	48 8b 45 d0          	mov    -0x30(%rbp),%rax
    589f:	48 83 c0 02          	add    $0x2,%rax
    58a3:	48 89 45 c8          	mov    %rax,-0x38(%rbp)
    58a7:	48 c7 45 c0 08 00 00 	movq   $0x8,-0x40(%rbp)
    58ae:	00 
    58af:	48 8d 55 c8          	lea    -0x38(%rbp),%rdx
    58b3:	48 8d 45 c0          	lea    -0x40(%rbp),%rax
    58b7:	48 89 d6             	mov    %rdx,%rsi
    58ba:	48 89 c7             	mov    %rax,%rdi
    58bd:	e8 af e8 ff ff       	call   4171 <_ZSt3maxImERKT_S2_S2_>
    58c2:	48 8b 10             	mov    (%rax),%rdx
    58c5:	48 8b 45 b8          	mov    -0x48(%rbp),%rax
    58c9:	48 89 50 08          	mov    %rdx,0x8(%rax)
    58cd:	48 8b 45 b8          	mov    -0x48(%rbp),%rax
    58d1:	48 8b 50 08          	mov    0x8(%rax),%rdx
    58d5:	48 8b 45 b8          	mov    -0x48(%rbp),%rax
    58d9:	48 89 d6             	mov    %rdx,%rsi
    58dc:	48 89 c7             	mov    %rax,%rdi
    58df:	e8 b0 0c 00 00       	call   6594 <_ZNSt11_Deque_baseI12DInstructionSaIS0_EE15_M_allocate_mapEm>
    58e4:	48 8b 55 b8          	mov    -0x48(%rbp),%rdx
    58e8:	48 89 02             	mov    %rax,(%rdx)
    58eb:	48 8b 45 b8          	mov    -0x48(%rbp),%rax
    58ef:	48 8b 10             	mov    (%rax),%rdx
    58f2:	48 8b 45 b8          	mov    -0x48(%rbp),%rax
    58f6:	48 8b 40 08          	mov    0x8(%rax),%rax
    58fa:	48 2b 45 d0          	sub    -0x30(%rbp),%rax
    58fe:	48 d1 e8             	shr    %rax
    5901:	48 c1 e0 03          	shl    $0x3,%rax
    5905:	48 01 d0             	add    %rdx,%rax
    5908:	48 89 45 d8          	mov    %rax,-0x28(%rbp)
    590c:	48 8b 45 d0          	mov    -0x30(%rbp),%rax
    5910:	48 8d 14 c5 00 00 00 	lea    0x0(,%rax,8),%rdx
    5917:	00 
    5918:	48 8b 45 d8          	mov    -0x28(%rbp),%rax
    591c:	48 01 d0             	add    %rdx,%rax
    591f:	48 89 45 e0          	mov    %rax,-0x20(%rbp)
    5923:	48 8b 55 e0          	mov    -0x20(%rbp),%rdx
    5927:	48 8b 4d d8          	mov    -0x28(%rbp),%rcx
    592b:	48 8b 45 b8          	mov    -0x48(%rbp),%rax
    592f:	48 89 ce             	mov    %rcx,%rsi
    5932:	48 89 c7             	mov    %rax,%rdi
    5935:	e8 f2 0c 00 00       	call   662c <_ZNSt11_Deque_baseI12DInstructionSaIS0_EE15_M_create_nodesEPPS0_S4_>
    593a:	48 8b 45 b8          	mov    -0x48(%rbp),%rax
    593e:	48 8d 50 10          	lea    0x10(%rax),%rdx
    5942:	48 8b 45 d8          	mov    -0x28(%rbp),%rax
    5946:	48 89 c6             	mov    %rax,%rsi
    5949:	48 89 d7             	mov    %rdx,%rdi
    594c:	e8 67 0d 00 00       	call   66b8 <_ZNSt15_Deque_iteratorI12DInstructionRS0_PS0_E11_M_set_nodeEPS2_>
    5951:	48 8b 45 b8          	mov    -0x48(%rbp),%rax
    5955:	48 83 c0 30          	add    $0x30,%rax
    5959:	48 8b 55 e0          	mov    -0x20(%rbp),%rdx
    595d:	48 83 ea 08          	sub    $0x8,%rdx
    5961:	48 89 d6             	mov    %rdx,%rsi
    5964:	48 89 c7             	mov    %rax,%rdi
    5967:	e8 4c 0d 00 00       	call   66b8 <_ZNSt15_Deque_iteratorI12DInstructionRS0_PS0_E11_M_set_nodeEPS2_>
    596c:	48 8b 45 b8          	mov    -0x48(%rbp),%rax
    5970:	48 8b 50 18          	mov    0x18(%rax),%rdx
    5974:	48 8b 45 b8          	mov    -0x48(%rbp),%rax
    5978:	48 89 50 10          	mov    %rdx,0x10(%rax)
    597c:	48 8b 45 b8          	mov    -0x48(%rbp),%rax
    5980:	48 8b 58 38          	mov    0x38(%rax),%rbx
    5984:	bf e8 00 00 00       	mov    $0xe8,%edi
    5989:	e8 f7 e1 ff ff       	call   3b85 <_ZSt16__deque_buf_sizem>
    598e:	48 89 c1             	mov    %rax,%rcx
    5991:	48 8b 45 b0          	mov    -0x50(%rbp),%rax
    5995:	ba 00 00 00 00       	mov    $0x0,%edx
    599a:	48 f7 f1             	div    %rcx
    599d:	48 89 d1             	mov    %rdx,%rcx
    59a0:	48 89 c8             	mov    %rcx,%rax
    59a3:	48 69 c0 e8 00 00 00 	imul   $0xe8,%rax,%rax
    59aa:	48 8d 14 03          	lea    (%rbx,%rax,1),%rdx
    59ae:	48 8b 45 b8          	mov    -0x48(%rbp),%rax
    59b2:	48 89 50 30          	mov    %rdx,0x30(%rax)
    59b6:	90                   	nop
    59b7:	48 8b 45 e8          	mov    -0x18(%rbp),%rax
    59bb:	64 48 2b 04 25 28 00 	sub    %fs:0x28,%rax
    59c2:	00 00 
    59c4:	74 64                	je     5a2a <_ZNSt11_Deque_baseI12DInstructionSaIS0_EE17_M_initialize_mapEm+0x1d4>
    59c6:	eb 5d                	jmp    5a25 <_ZNSt11_Deque_baseI12DInstructionSaIS0_EE17_M_initialize_mapEm+0x1cf>
    59c8:	f3 0f 1e fa          	endbr64 
    59cc:	48 89 c7             	mov    %rax,%rdi
    59cf:	e8 bc da ff ff       	call   3490 <__cxa_begin_catch@plt>
    59d4:	48 8b 45 b8          	mov    -0x48(%rbp),%rax
    59d8:	48 8b 50 08          	mov    0x8(%rax),%rdx
    59dc:	48 8b 45 b8          	mov    -0x48(%rbp),%rax
    59e0:	48 8b 08             	mov    (%rax),%rcx
    59e3:	48 8b 45 b8          	mov    -0x48(%rbp),%rax
    59e7:	48 89 ce             	mov    %rcx,%rsi
    59ea:	48 89 c7             	mov    %rax,%rdi
    59ed:	e8 8a 00 00 00       	call   5a7c <_ZNSt11_Deque_baseI12DInstructionSaIS0_EE17_M_deallocate_mapEPPS0_m>
    59f2:	48 8b 45 b8          	mov    -0x48(%rbp),%rax
    59f6:	48 c7 00 00 00 00 00 	movq   $0x0,(%rax)
    59fd:	48 8b 45 b8          	mov    -0x48(%rbp),%rax
    5a01:	48 c7 40 08 00 00 00 	movq   $0x0,0x8(%rax)
    5a08:	00 
    5a09:	e8 d2 dc ff ff       	call   36e0 <__cxa_rethrow@plt>
    5a0e:	f3 0f 1e fa          	endbr64 
    5a12:	48 89 c3             	mov    %rax,%rbx
    5a15:	e8 16 dd ff ff       	call   3730 <__cxa_end_catch@plt>
    5a1a:	48 89 d8             	mov    %rbx,%rax
    5a1d:	48 89 c7             	mov    %rax,%rdi
    5a20:	e8 5b dd ff ff       	call   3780 <_Unwind_Resume@plt>
    5a25:	e8 46 dc ff ff       	call   3670 <__stack_chk_fail@plt>
    5a2a:	48 8b 5d f8          	mov    -0x8(%rbp),%rbx
    5a2e:	c9                   	leave  
    5a2f:	c3                   	ret    

0000000000005a30 <_ZNSt11_Deque_baseI12DInstructionSaIS0_EE16_M_destroy_nodesEPPS0_S4_>:
    5a30:	f3 0f 1e fa          	endbr64 
    5a34:	55                   	push   %rbp
    5a35:	48 89 e5             	mov    %rsp,%rbp
    5a38:	48 83 ec 30          	sub    $0x30,%rsp
    5a3c:	48 89 7d e8          	mov    %rdi,-0x18(%rbp)
    5a40:	48 89 75 e0          	mov    %rsi,-0x20(%rbp)
    5a44:	48 89 55 d8          	mov    %rdx,-0x28(%rbp)
    5a48:	48 8b 45 e0          	mov    -0x20(%rbp),%rax
    5a4c:	48 89 45 f8          	mov    %rax,-0x8(%rbp)
    5a50:	eb 1b                	jmp    5a6d <_ZNSt11_Deque_baseI12DInstructionSaIS0_EE16_M_destroy_nodesEPPS0_S4_+0x3d>
    5a52:	48 8b 45 f8          	mov    -0x8(%rbp),%rax
    5a56:	48 8b 10             	mov    (%rax),%rdx
    5a59:	48 8b 45 e8          	mov    -0x18(%rbp),%rax
    5a5d:	48 89 d6             	mov    %rdx,%rsi
    5a60:	48 89 c7             	mov    %rax,%rdi
    5a63:	e8 a8 0c 00 00       	call   6710 <_ZNSt11_Deque_baseI12DInstructionSaIS0_EE18_M_deallocate_nodeEPS0_>
    5a68:	48 83 45 f8 08       	addq   $0x8,-0x8(%rbp)
    5a6d:	48 8b 45 f8          	mov    -0x8(%rbp),%rax
    5a71:	48 3b 45 d8          	cmp    -0x28(%rbp),%rax
    5a75:	72 db                	jb     5a52 <_ZNSt11_Deque_baseI12DInstructionSaIS0_EE16_M_destroy_nodesEPPS0_S4_+0x22>
    5a77:	90                   	nop
    5a78:	90                   	nop
    5a79:	c9                   	leave  
    5a7a:	c3                   	ret    
    5a7b:	90                   	nop

0000000000005a7c <_ZNSt11_Deque_baseI12DInstructionSaIS0_EE17_M_deallocate_mapEPPS0_m>:
    5a7c:	f3 0f 1e fa          	endbr64 
    5a80:	55                   	push   %rbp
    5a81:	48 89 e5             	mov    %rsp,%rbp
    5a84:	48 83 ec 30          	sub    $0x30,%rsp
    5a88:	48 89 7d e8          	mov    %rdi,-0x18(%rbp)
    5a8c:	48 89 75 e0          	mov    %rsi,-0x20(%rbp)
    5a90:	48 89 55 d8          	mov    %rdx,-0x28(%rbp)
    5a94:	64 48 8b 04 25 28 00 	mov    %fs:0x28,%rax
    5a9b:	00 00 
    5a9d:	48 89 45 f8          	mov    %rax,-0x8(%rbp)
    5aa1:	31 c0                	xor    %eax,%eax
    5aa3:	48 8d 45 f7          	lea    -0x9(%rbp),%rax
    5aa7:	48 8b 55 e8          	mov    -0x18(%rbp),%rdx
    5aab:	48 89 d6             	mov    %rdx,%rsi
    5aae:	48 89 c7             	mov    %rax,%rdi
    5ab1:	e8 92 0c 00 00       	call   6748 <_ZNKSt11_Deque_baseI12DInstructionSaIS0_EE20_M_get_map_allocatorEv>
    5ab6:	48 8b 55 d8          	mov    -0x28(%rbp),%rdx
    5aba:	48 8b 4d e0          	mov    -0x20(%rbp),%rcx
    5abe:	48 8d 45 f7          	lea    -0x9(%rbp),%rax
    5ac2:	48 89 ce             	mov    %rcx,%rsi
    5ac5:	48 89 c7             	mov    %rax,%rdi
    5ac8:	e8 d2 0c 00 00       	call   679f <_ZNSt16allocator_traitsISaIP12DInstructionEE10deallocateERS2_PS1_m>
    5acd:	48 8d 45 f7          	lea    -0x9(%rbp),%rax
    5ad1:	48 89 c7             	mov    %rax,%rdi
    5ad4:	e8 a7 0c 00 00       	call   6780 <_ZNSaIP12DInstructionED1Ev>
    5ad9:	48 8b 45 f8          	mov    -0x8(%rbp),%rax
    5add:	64 48 2b 04 25 28 00 	sub    %fs:0x28,%rax
    5ae4:	00 00 
    5ae6:	74 05                	je     5aed <_ZNSt11_Deque_baseI12DInstructionSaIS0_EE17_M_deallocate_mapEPPS0_m+0x71>
    5ae8:	e8 83 db ff ff       	call   3670 <__stack_chk_fail@plt>
    5aed:	c9                   	leave  
    5aee:	c3                   	ret    
    5aef:	90                   	nop

0000000000005af0 <_ZNSt15_Deque_iteratorI12DInstructionRS0_PS0_EC1ERKS3_>:
    5af0:	f3 0f 1e fa          	endbr64 
    5af4:	55                   	push   %rbp
    5af5:	48 89 e5             	mov    %rsp,%rbp
    5af8:	48 89 7d f8          	mov    %rdi,-0x8(%rbp)
    5afc:	48 89 75 f0          	mov    %rsi,-0x10(%rbp)
    5b00:	48 8b 45 f0          	mov    -0x10(%rbp),%rax
    5b04:	48 8b 10             	mov    (%rax),%rdx
    5b07:	48 8b 45 f8          	mov    -0x8(%rbp),%rax
    5b0b:	48 89 10             	mov    %rdx,(%rax)
    5b0e:	48 8b 45 f0          	mov    -0x10(%rbp),%rax
    5b12:	48 8b 50 08          	mov    0x8(%rax),%rdx
    5b16:	48 8b 45 f8          	mov    -0x8(%rbp),%rax
    5b1a:	48 89 50 08          	mov    %rdx,0x8(%rax)
    5b1e:	48 8b 45 f0          	mov    -0x10(%rbp),%rax
    5b22:	48 8b 50 10          	mov    0x10(%rax),%rdx
    5b26:	48 8b 45 f8          	mov    -0x8(%rbp),%rax
    5b2a:	48 89 50 10          	mov    %rdx,0x10(%rax)
    5b2e:	48 8b 45 f0          	mov    -0x10(%rbp),%rax
    5b32:	48 8b 50 18          	mov    0x18(%rax),%rdx
    5b36:	48 8b 45 f8          	mov    -0x8(%rbp),%rax
    5b3a:	48 89 50 18          	mov    %rdx,0x18(%rax)
    5b3e:	90                   	nop
    5b3f:	5d                   	pop    %rbp
    5b40:	c3                   	ret    
    5b41:	90                   	nop

0000000000005b42 <_ZNSt5dequeI12DInstructionSaIS0_EE19_M_destroy_data_auxESt15_Deque_iteratorIS0_RS0_PS0_ES6_>:
    5b42:	f3 0f 1e fa          	endbr64 
    5b46:	55                   	push   %rbp
    5b47:	48 89 e5             	mov    %rsp,%rbp
    5b4a:	41 54                	push   %r12
    5b4c:	53                   	push   %rbx
    5b4d:	48 83 ec 30          	sub    $0x30,%rsp
    5b51:	48 89 7d d8          	mov    %rdi,-0x28(%rbp)
    5b55:	48 89 75 d0          	mov    %rsi,-0x30(%rbp)
    5b59:	48 89 55 c8          	mov    %rdx,-0x38(%rbp)
    5b5d:	48 8b 45 d0          	mov    -0x30(%rbp),%rax
    5b61:	48 8b 40 18          	mov    0x18(%rax),%rax
    5b65:	48 83 c0 08          	add    $0x8,%rax
    5b69:	48 89 45 e8          	mov    %rax,-0x18(%rbp)
    5b6d:	eb 40                	jmp    5baf <_ZNSt5dequeI12DInstructionSaIS0_EE19_M_destroy_data_auxESt15_Deque_iteratorIS0_RS0_PS0_ES6_+0x6d>
    5b6f:	48 8b 45 d8          	mov    -0x28(%rbp),%rax
    5b73:	48 89 c7             	mov    %rax,%rdi
    5b76:	e8 1b f5 ff ff       	call   5096 <_ZNSt11_Deque_baseI12DInstructionSaIS0_EE19_M_get_Tp_allocatorEv>
    5b7b:	48 89 c3             	mov    %rax,%rbx
    5b7e:	48 8b 45 e8          	mov    -0x18(%rbp),%rax
    5b82:	4c 8b 20             	mov    (%rax),%r12
    5b85:	e8 47 0c 00 00       	call   67d1 <_ZNSt5dequeI12DInstructionSaIS0_EE14_S_buffer_sizeEv>
    5b8a:	48 69 c0 e8 00 00 00 	imul   $0xe8,%rax,%rax
    5b91:	49 8d 0c 04          	lea    (%r12,%rax,1),%rcx
    5b95:	48 8b 45 e8          	mov    -0x18(%rbp),%rax
    5b99:	48 8b 00             	mov    (%rax),%rax
    5b9c:	48 89 da             	mov    %rbx,%rdx
    5b9f:	48 89 ce             	mov    %rcx,%rsi
    5ba2:	48 89 c7             	mov    %rax,%rdi
    5ba5:	e8 0d f0 ff ff       	call   4bb7 <_ZSt8_DestroyIP12DInstructionS0_EvT_S2_RSaIT0_E>
    5baa:	48 83 45 e8 08       	addq   $0x8,-0x18(%rbp)
    5baf:	48 8b 45 c8          	mov    -0x38(%rbp),%rax
    5bb3:	48 8b 40 18          	mov    0x18(%rax),%rax
    5bb7:	48 39 45 e8          	cmp    %rax,-0x18(%rbp)
    5bbb:	72 b2                	jb     5b6f <_ZNSt5dequeI12DInstructionSaIS0_EE19_M_destroy_data_auxESt15_Deque_iteratorIS0_RS0_PS0_ES6_+0x2d>
    5bbd:	48 8b 45 d0          	mov    -0x30(%rbp),%rax
    5bc1:	48 8b 50 18          	mov    0x18(%rax),%rdx
    5bc5:	48 8b 45 c8          	mov    -0x38(%rbp),%rax
    5bc9:	48 8b 40 18          	mov    0x18(%rax),%rax
    5bcd:	48 39 c2             	cmp    %rax,%rdx
    5bd0:	74 54                	je     5c26 <_ZNSt5dequeI12DInstructionSaIS0_EE19_M_destroy_data_auxESt15_Deque_iteratorIS0_RS0_PS0_ES6_+0xe4>
    5bd2:	48 8b 45 d8          	mov    -0x28(%rbp),%rax
    5bd6:	48 89 c7             	mov    %rax,%rdi
    5bd9:	e8 b8 f4 ff ff       	call   5096 <_ZNSt11_Deque_baseI12DInstructionSaIS0_EE19_M_get_Tp_allocatorEv>
    5bde:	48 89 c2             	mov    %rax,%rdx
    5be1:	48 8b 45 d0          	mov    -0x30(%rbp),%rax
    5be5:	48 8b 48 10          	mov    0x10(%rax),%rcx
    5be9:	48 8b 45 d0          	mov    -0x30(%rbp),%rax
    5bed:	48 8b 00             	mov    (%rax),%rax
    5bf0:	48 89 ce             	mov    %rcx,%rsi
    5bf3:	48 89 c7             	mov    %rax,%rdi
    5bf6:	e8 bc ef ff ff       	call   4bb7 <_ZSt8_DestroyIP12DInstructionS0_EvT_S2_RSaIT0_E>
    5bfb:	48 8b 45 d8          	mov    -0x28(%rbp),%rax
    5bff:	48 89 c7             	mov    %rax,%rdi
    5c02:	e8 8f f4 ff ff       	call   5096 <_ZNSt11_Deque_baseI12DInstructionSaIS0_EE19_M_get_Tp_allocatorEv>
    5c07:	48 89 c2             	mov    %rax,%rdx
    5c0a:	48 8b 45 c8          	mov    -0x38(%rbp),%rax
    5c0e:	48 8b 08             	mov    (%rax),%rcx
    5c11:	48 8b 45 c8          	mov    -0x38(%rbp),%rax
    5c15:	48 8b 40 08          	mov    0x8(%rax),%rax
    5c19:	48 89 ce             	mov    %rcx,%rsi
    5c1c:	48 89 c7             	mov    %rax,%rdi
    5c1f:	e8 93 ef ff ff       	call   4bb7 <_ZSt8_DestroyIP12DInstructionS0_EvT_S2_RSaIT0_E>
    5c24:	eb 28                	jmp    5c4e <_ZNSt5dequeI12DInstructionSaIS0_EE19_M_destroy_data_auxESt15_Deque_iteratorIS0_RS0_PS0_ES6_+0x10c>
    5c26:	48 8b 45 d8          	mov    -0x28(%rbp),%rax
    5c2a:	48 89 c7             	mov    %rax,%rdi
    5c2d:	e8 64 f4 ff ff       	call   5096 <_ZNSt11_Deque_baseI12DInstructionSaIS0_EE19_M_get_Tp_allocatorEv>
    5c32:	48 89 c2             	mov    %rax,%rdx
    5c35:	48 8b 45 c8          	mov    -0x38(%rbp),%rax
    5c39:	48 8b 08             	mov    (%rax),%rcx
    5c3c:	48 8b 45 d0          	mov    -0x30(%rbp),%rax
    5c40:	48 8b 00             	mov    (%rax),%rax
    5c43:	48 89 ce             	mov    %rcx,%rsi
    5c46:	48 89 c7             	mov    %rax,%rdi
    5c49:	e8 69 ef ff ff       	call   4bb7 <_ZSt8_DestroyIP12DInstructionS0_EvT_S2_RSaIT0_E>
    5c4e:	90                   	nop
    5c4f:	48 83 c4 30          	add    $0x30,%rsp
    5c53:	5b                   	pop    %rbx
    5c54:	41 5c                	pop    %r12
    5c56:	5d                   	pop    %rbp
    5c57:	c3                   	ret    

0000000000005c58 <_ZNSt15__new_allocatorINSt8__detail10_Hash_nodeISt4pairIKNSt7__cxx1112basic_stringIcSt11char_traitsIcESaIcEEEiELb1EEEEC1Ev>:
    5c58:	f3 0f 1e fa          	endbr64 
    5c5c:	55                   	push   %rbp
    5c5d:	48 89 e5             	mov    %rsp,%rbp
    5c60:	48 89 7d f8          	mov    %rdi,-0x8(%rbp)
    5c64:	90                   	nop
    5c65:	5d                   	pop    %rbp
    5c66:	c3                   	ret    
    5c67:	90                   	nop

0000000000005c68 <_ZNKSt10_HashtableINSt7__cxx1112basic_stringIcSt11char_traitsIcESaIcEEESt4pairIKS5_iESaIS8_ENSt8__detail10_Select1stESt8equal_toIS5_ESt4hashIS5_ENSA_18_Mod_range_hashingENSA_20_Default_ranged_hashENSA_20_Prime_rehash_policyENSA_17_Hashtable_traitsILb1ELb0ELb1EEEE8_M_beginEv>:
    5c68:	f3 0f 1e fa          	endbr64 
    5c6c:	55                   	push   %rbp
    5c6d:	48 89 e5             	mov    %rsp,%rbp
    5c70:	48 89 7d f8          	mov    %rdi,-0x8(%rbp)
    5c74:	48 8b 45 f8          	mov    -0x8(%rbp),%rax
    5c78:	48 8b 40 10          	mov    0x10(%rax),%rax
    5c7c:	5d                   	pop    %rbp
    5c7d:	c3                   	ret    

0000000000005c7e <_ZNSt8__detail16_Hashtable_allocISaINS_10_Hash_nodeISt4pairIKNSt7__cxx1112basic_stringIcSt11char_traitsIcESaIcEEEiELb1EEEEE19_M_deallocate_nodesEPSB_>:
    5c7e:	f3 0f 1e fa          	endbr64 
    5c82:	55                   	push   %rbp
    5c83:	48 89 e5             	mov    %rsp,%rbp
    5c86:	48 83 ec 20          	sub    $0x20,%rsp
    5c8a:	48 89 7d e8          	mov    %rdi,-0x18(%rbp)
    5c8e:	48 89 75 e0          	mov    %rsi,-0x20(%rbp)
    5c92:	eb 2b                	jmp    5cbf <_ZNSt8__detail16_Hashtable_allocISaINS_10_Hash_nodeISt4pairIKNSt7__cxx1112basic_stringIcSt11char_traitsIcESaIcEEEiELb1EEEEE19_M_deallocate_nodesEPSB_+0x41>
    5c94:	48 8b 45 e0          	mov    -0x20(%rbp),%rax
    5c98:	48 89 45 f8          	mov    %rax,-0x8(%rbp)
    5c9c:	48 8b 45 e0          	mov    -0x20(%rbp),%rax
    5ca0:	48 89 c7             	mov    %rax,%rdi
    5ca3:	e8 3e 0b 00 00       	call   67e6 <_ZNKSt8__detail10_Hash_nodeISt4pairIKNSt7__cxx1112basic_stringIcSt11char_traitsIcESaIcEEEiELb1EE7_M_nextEv>
    5ca8:	48 89 45 e0          	mov    %rax,-0x20(%rbp)
    5cac:	48 8b 55 f8          	mov    -0x8(%rbp),%rdx
    5cb0:	48 8b 45 e8          	mov    -0x18(%rbp),%rax
    5cb4:	48 89 d6             	mov    %rdx,%rsi
    5cb7:	48 89 c7             	mov    %rax,%rdi
    5cba:	e8 3d 0b 00 00       	call   67fc <_ZNSt8__detail16_Hashtable_allocISaINS_10_Hash_nodeISt4pairIKNSt7__cxx1112basic_stringIcSt11char_traitsIcESaIcEEEiELb1EEEEE18_M_deallocate_nodeEPSB_>
    5cbf:	48 83 7d e0 00       	cmpq   $0x0,-0x20(%rbp)
    5cc4:	75 ce                	jne    5c94 <_ZNSt8__detail16_Hashtable_allocISaINS_10_Hash_nodeISt4pairIKNSt7__cxx1112basic_stringIcSt11char_traitsIcESaIcEEEiELb1EEEEE19_M_deallocate_nodesEPSB_+0x16>
    5cc6:	90                   	nop
    5cc7:	90                   	nop
    5cc8:	c9                   	leave  
    5cc9:	c3                   	ret    

0000000000005cca <_ZNSt10_HashtableINSt7__cxx1112basic_stringIcSt11char_traitsIcESaIcEEESt4pairIKS5_iESaIS8_ENSt8__detail10_Select1stESt8equal_toIS5_ESt4hashIS5_ENSA_18_Mod_range_hashingENSA_20_Default_ranged_hashENSA_20_Prime_rehash_policyENSA_17_Hashtable_traitsILb1ELb0ELb1EEEE21_M_deallocate_bucketsEPPNSA_15_Hash_node_baseEm>:
    5cca:	f3 0f 1e fa          	endbr64 
    5cce:	55                   	push   %rbp
    5ccf:	48 89 e5             	mov    %rsp,%rbp
    5cd2:	48 83 ec 20          	sub    $0x20,%rsp
    5cd6:	48 89 7d f8          	mov    %rdi,-0x8(%rbp)
    5cda:	48 89 75 f0          	mov    %rsi,-0x10(%rbp)
    5cde:	48 89 55 e8          	mov    %rdx,-0x18(%rbp)
    5ce2:	48 8b 55 f0          	mov    -0x10(%rbp),%rdx
    5ce6:	48 8b 45 f8          	mov    -0x8(%rbp),%rax
    5cea:	48 89 d6             	mov    %rdx,%rsi
    5ced:	48 89 c7             	mov    %rax,%rdi
    5cf0:	e8 61 0b 00 00       	call   6856 <_ZNKSt10_HashtableINSt7__cxx1112basic_stringIcSt11char_traitsIcESaIcEEESt4pairIKS5_iESaIS8_ENSt8__detail10_Select1stESt8equal_toIS5_ESt4hashIS5_ENSA_18_Mod_range_hashingENSA_20_Default_ranged_hashENSA_20_Prime_rehash_policyENSA_17_Hashtable_traitsILb1ELb0ELb1EEEE21_M_uses_single_bucketEPPNSA_15_Hash_node_baseE>
    5cf5:	84 c0                	test   %al,%al
    5cf7:	75 19                	jne    5d12 <_ZNSt10_HashtableINSt7__cxx1112basic_stringIcSt11char_traitsIcESaIcEEESt4pairIKS5_iESaIS8_ENSt8__detail10_Select1stESt8equal_toIS5_ESt4hashIS5_ENSA_18_Mod_range_hashingENSA_20_Default_ranged_hashENSA_20_Prime_rehash_policyENSA_17_Hashtable_traitsILb1ELb0ELb1EEEE21_M_deallocate_bucketsEPPNSA_15_Hash_node_baseEm+0x48>
    5cf9:	48 8b 55 e8          	mov    -0x18(%rbp),%rdx
    5cfd:	48 8b 4d f0          	mov    -0x10(%rbp),%rcx
    5d01:	48 8b 45 f8          	mov    -0x8(%rbp),%rax
    5d05:	48 89 ce             	mov    %rcx,%rsi
    5d08:	48 89 c7             	mov    %rax,%rdi
    5d0b:	e8 70 0b 00 00       	call   6880 <_ZNSt8__detail16_Hashtable_allocISaINS_10_Hash_nodeISt4pairIKNSt7__cxx1112basic_stringIcSt11char_traitsIcESaIcEEEiELb1EEEEE21_M_deallocate_bucketsEPPNS_15_Hash_node_baseEm>
    5d10:	eb 01                	jmp    5d13 <_ZNSt10_HashtableINSt7__cxx1112basic_stringIcSt11char_traitsIcESaIcEEESt4pairIKS5_iESaIS8_ENSt8__detail10_Select1stESt8equal_toIS5_ESt4hashIS5_ENSA_18_Mod_range_hashingENSA_20_Default_ranged_hashENSA_20_Prime_rehash_policyENSA_17_Hashtable_traitsILb1ELb0ELb1EEEE21_M_deallocate_bucketsEPPNSA_15_Hash_node_baseEm+0x49>
    5d12:	90                   	nop
    5d13:	c9                   	leave  
    5d14:	c3                   	ret    
    5d15:	90                   	nop

0000000000005d16 <_ZNSt15__new_allocatorINSt8__detail10_Hash_nodeISt4pairIKNSt7__cxx1112basic_stringIcSt11char_traitsIcESaIcEEE12DInstructionELb1EEEEC1Ev>:
    5d16:	f3 0f 1e fa          	endbr64 
    5d1a:	55                   	push   %rbp
    5d1b:	48 89 e5             	mov    %rsp,%rbp
    5d1e:	48 89 7d f8          	mov    %rdi,-0x8(%rbp)
    5d22:	90                   	nop
    5d23:	5d                   	pop    %rbp
    5d24:	c3                   	ret    
    5d25:	90                   	nop

0000000000005d26 <_ZNKSt10_HashtableINSt7__cxx1112basic_stringIcSt11char_traitsIcESaIcEEESt4pairIKS5_12DInstructionESaIS9_ENSt8__detail10_Select1stESt8equal_toIS5_ESt4hashIS5_ENSB_18_Mod_range_hashingENSB_20_Default_ranged_hashENSB_20_Prime_rehash_policyENSB_17_Hashtable_traitsILb1ELb0ELb1EEEE8_M_beginEv>:
    5d26:	f3 0f 1e fa          	endbr64 
    5d2a:	55                   	push   %rbp
    5d2b:	48 89 e5             	mov    %rsp,%rbp
    5d2e:	48 89 7d f8          	mov    %rdi,-0x8(%rbp)
    5d32:	48 8b 45 f8          	mov    -0x8(%rbp),%rax
    5d36:	48 8b 40 10          	mov    0x10(%rax),%rax
    5d3a:	5d                   	pop    %rbp
    5d3b:	c3                   	ret    

0000000000005d3c <_ZNSt8__detail16_Hashtable_allocISaINS_10_Hash_nodeISt4pairIKNSt7__cxx1112basic_stringIcSt11char_traitsIcESaIcEEE12DInstructionELb1EEEEE19_M_deallocate_nodesEPSC_>:
    5d3c:	f3 0f 1e fa          	endbr64 
    5d40:	55                   	push   %rbp
    5d41:	48 89 e5             	mov    %rsp,%rbp
    5d44:	48 83 ec 20          	sub    $0x20,%rsp
    5d48:	48 89 7d e8          	mov    %rdi,-0x18(%rbp)
    5d4c:	48 89 75 e0          	mov    %rsi,-0x20(%rbp)
    5d50:	eb 2b                	jmp    5d7d <_ZNSt8__detail16_Hashtable_allocISaINS_10_Hash_nodeISt4pairIKNSt7__cxx1112basic_stringIcSt11char_traitsIcESaIcEEE12DInstructionELb1EEEEE19_M_deallocate_nodesEPSC_+0x41>
    5d52:	48 8b 45 e0          	mov    -0x20(%rbp),%rax
    5d56:	48 89 45 f8          	mov    %rax,-0x8(%rbp)
    5d5a:	48 8b 45 e0          	mov    -0x20(%rbp),%rax
    5d5e:	48 89 c7             	mov    %rax,%rdi
    5d61:	e8 ce 0b 00 00       	call   6934 <_ZNKSt8__detail10_Hash_nodeISt4pairIKNSt7__cxx1112basic_stringIcSt11char_traitsIcESaIcEEE12DInstructionELb1EE7_M_nextEv>
    5d66:	48 89 45 e0          	mov    %rax,-0x20(%rbp)
    5d6a:	48 8b 55 f8          	mov    -0x8(%rbp),%rdx
    5d6e:	48 8b 45 e8          	mov    -0x18(%rbp),%rax
    5d72:	48 89 d6             	mov    %rdx,%rsi
    5d75:	48 89 c7             	mov    %rax,%rdi
    5d78:	e8 cd 0b 00 00       	call   694a <_ZNSt8__detail16_Hashtable_allocISaINS_10_Hash_nodeISt4pairIKNSt7__cxx1112basic_stringIcSt11char_traitsIcESaIcEEE12DInstructionELb1EEEEE18_M_deallocate_nodeEPSC_>
    5d7d:	48 83 7d e0 00       	cmpq   $0x0,-0x20(%rbp)
    5d82:	75 ce                	jne    5d52 <_ZNSt8__detail16_Hashtable_allocISaINS_10_Hash_nodeISt4pairIKNSt7__cxx1112basic_stringIcSt11char_traitsIcESaIcEEE12DInstructionELb1EEEEE19_M_deallocate_nodesEPSC_+0x16>
    5d84:	90                   	nop
    5d85:	90                   	nop
    5d86:	c9                   	leave  
    5d87:	c3                   	ret    

0000000000005d88 <_ZNSt10_HashtableINSt7__cxx1112basic_stringIcSt11char_traitsIcESaIcEEESt4pairIKS5_12DInstructionESaIS9_ENSt8__detail10_Select1stESt8equal_toIS5_ESt4hashIS5_ENSB_18_Mod_range_hashingENSB_20_Default_ranged_hashENSB_20_Prime_rehash_policyENSB_17_Hashtable_traitsILb1ELb0ELb1EEEE21_M_deallocate_bucketsEPPNSB_15_Hash_node_baseEm>:
    5d88:	f3 0f 1e fa          	endbr64 
    5d8c:	55                   	push   %rbp
    5d8d:	48 89 e5             	mov    %rsp,%rbp
    5d90:	48 83 ec 20          	sub    $0x20,%rsp
    5d94:	48 89 7d f8          	mov    %rdi,-0x8(%rbp)
    5d98:	48 89 75 f0          	mov    %rsi,-0x10(%rbp)
    5d9c:	48 89 55 e8          	mov    %rdx,-0x18(%rbp)
    5da0:	48 8b 55 f0          	mov    -0x10(%rbp),%rdx
    5da4:	48 8b 45 f8          	mov    -0x8(%rbp),%rax
    5da8:	48 89 d6             	mov    %rdx,%rsi
    5dab:	48 89 c7             	mov    %rax,%rdi
    5dae:	e8 f1 0b 00 00       	call   69a4 <_ZNKSt10_HashtableINSt7__cxx1112basic_stringIcSt11char_traitsIcESaIcEEESt4pairIKS5_12DInstructionESaIS9_ENSt8__detail10_Select1stESt8equal_toIS5_ESt4hashIS5_ENSB_18_Mod_range_hashingENSB_20_Default_ranged_hashENSB_20_Prime_rehash_policyENSB_17_Hashtable_traitsILb1ELb0ELb1EEEE21_M_uses_single_bucketEPPNSB_15_Hash_node_baseE>
    5db3:	84 c0                	test   %al,%al
    5db5:	75 19                	jne    5dd0 <_ZNSt10_HashtableINSt7__cxx1112basic_stringIcSt11char_traitsIcESaIcEEESt4pairIKS5_12DInstructionESaIS9_ENSt8__detail10_Select1stESt8equal_toIS5_ESt4hashIS5_ENSB_18_Mod_range_hashingENSB_20_Default_ranged_hashENSB_20_Prime_rehash_policyENSB_17_Hashtable_traitsILb1ELb0ELb1EEEE21_M_deallocate_bucketsEPPNSB_15_Hash_node_baseEm+0x48>
    5db7:	48 8b 55 e8          	mov    -0x18(%rbp),%rdx
    5dbb:	48 8b 4d f0          	mov    -0x10(%rbp),%rcx
    5dbf:	48 8b 45 f8          	mov    -0x8(%rbp),%rax
    5dc3:	48 89 ce             	mov    %rcx,%rsi
    5dc6:	48 89 c7             	mov    %rax,%rdi
    5dc9:	e8 00 0c 00 00       	call   69ce <_ZNSt8__detail16_Hashtable_allocISaINS_10_Hash_nodeISt4pairIKNSt7__cxx1112basic_stringIcSt11char_traitsIcESaIcEEE12DInstructionELb1EEEEE21_M_deallocate_bucketsEPPNS_15_Hash_node_baseEm>
    5dce:	eb 01                	jmp    5dd1 <_ZNSt10_HashtableINSt7__cxx1112basic_stringIcSt11char_traitsIcESaIcEEESt4pairIKS5_12DInstructionESaIS9_ENSt8__detail10_Select1stESt8equal_toIS5_ESt4hashIS5_ENSB_18_Mod_range_hashingENSB_20_Default_ranged_hashENSB_20_Prime_rehash_policyENSB_17_Hashtable_traitsILb1ELb0ELb1EEEE21_M_deallocate_bucketsEPPNSB_15_Hash_node_baseEm+0x49>
    5dd0:	90                   	nop
    5dd1:	c9                   	leave  
    5dd2:	c3                   	ret    
    5dd3:	90                   	nop

0000000000005dd4 <_ZNSt15__new_allocatorINSt8__detail10_Hash_nodeISt4pairIKNSt7__cxx1112basic_stringIcSt11char_traitsIcESaIcEEE8RegisterELb1EEEEC1Ev>:
    5dd4:	f3 0f 1e fa          	endbr64 
    5dd8:	55                   	push   %rbp
    5dd9:	48 89 e5             	mov    %rsp,%rbp
    5ddc:	48 89 7d f8          	mov    %rdi,-0x8(%rbp)
    5de0:	90                   	nop
    5de1:	5d                   	pop    %rbp
    5de2:	c3                   	ret    
    5de3:	90                   	nop

0000000000005de4 <_ZNSt15__new_allocatorINSt7__cxx1112basic_stringIcSt11char_traitsIcESaIcEEEE10deallocateEPS5_m>:
    5de4:	f3 0f 1e fa          	endbr64 
    5de8:	55                   	push   %rbp
    5de9:	48 89 e5             	mov    %rsp,%rbp
    5dec:	48 83 ec 20          	sub    $0x20,%rsp
    5df0:	48 89 7d f8          	mov    %rdi,-0x8(%rbp)
    5df4:	48 89 75 f0          	mov    %rsi,-0x10(%rbp)
    5df8:	48 89 55 e8          	mov    %rdx,-0x18(%rbp)
    5dfc:	48 8b 45 e8          	mov    -0x18(%rbp),%rax
    5e00:	48 c1 e0 05          	shl    $0x5,%rax
    5e04:	48 89 c2             	mov    %rax,%rdx
    5e07:	48 8b 45 f0          	mov    -0x10(%rbp),%rax
    5e0b:	48 89 d6             	mov    %rdx,%rsi
    5e0e:	48 89 c7             	mov    %rax,%rdi
    5e11:	e8 fa d7 ff ff       	call   3610 <_ZdlPvm@plt>
    5e16:	c9                   	leave  
    5e17:	c3                   	ret    

0000000000005e18 <_ZNSt12_Destroy_auxILb0EE9__destroyIPNSt7__cxx1112basic_stringIcSt11char_traitsIcESaIcEEEEEvT_S9_>:
    5e18:	f3 0f 1e fa          	endbr64 
    5e1c:	55                   	push   %rbp
    5e1d:	48 89 e5             	mov    %rsp,%rbp
    5e20:	48 83 ec 10          	sub    $0x10,%rsp
    5e24:	48 89 7d f8          	mov    %rdi,-0x8(%rbp)
    5e28:	48 89 75 f0          	mov    %rsi,-0x10(%rbp)
    5e2c:	eb 19                	jmp    5e47 <_ZNSt12_Destroy_auxILb0EE9__destroyIPNSt7__cxx1112basic_stringIcSt11char_traitsIcESaIcEEEEEvT_S9_+0x2f>
    5e2e:	48 8b 45 f8          	mov    -0x8(%rbp),%rax
    5e32:	48 89 c7             	mov    %rax,%rdi
    5e35:	e8 47 0c 00 00       	call   6a81 <_ZSt11__addressofINSt7__cxx1112basic_stringIcSt11char_traitsIcESaIcEEEEPT_RS6_>
    5e3a:	48 89 c7             	mov    %rax,%rdi
    5e3d:	e8 51 0c 00 00       	call   6a93 <_ZSt8_DestroyINSt7__cxx1112basic_stringIcSt11char_traitsIcESaIcEEEEvPT_>
    5e42:	48 83 45 f8 20       	addq   $0x20,-0x8(%rbp)
    5e47:	48 8b 45 f8          	mov    -0x8(%rbp),%rax
    5e4b:	48 3b 45 f0          	cmp    -0x10(%rbp),%rax
    5e4f:	75 dd                	jne    5e2e <_ZNSt12_Destroy_auxILb0EE9__destroyIPNSt7__cxx1112basic_stringIcSt11char_traitsIcESaIcEEEEEvT_S9_+0x16>
    5e51:	90                   	nop
    5e52:	90                   	nop
    5e53:	c9                   	leave  
    5e54:	c3                   	ret    
    5e55:	90                   	nop

0000000000005e56 <_ZNKSt8__detail10_Hash_nodeISt4pairIKNSt7__cxx1112basic_stringIcSt11char_traitsIcESaIcEEES7_ELb1EE7_M_nextEv>:
    5e56:	f3 0f 1e fa          	endbr64 
    5e5a:	55                   	push   %rbp
    5e5b:	48 89 e5             	mov    %rsp,%rbp
    5e5e:	48 89 7d f8          	mov    %rdi,-0x8(%rbp)
    5e62:	48 8b 45 f8          	mov    -0x8(%rbp),%rax
    5e66:	48 8b 00             	mov    (%rax),%rax
    5e69:	5d                   	pop    %rbp
    5e6a:	c3                   	ret    
    5e6b:	90                   	nop

0000000000005e6c <_ZNSt8__detail16_Hashtable_allocISaINS_10_Hash_nodeISt4pairIKNSt7__cxx1112basic_stringIcSt11char_traitsIcESaIcEEES8_ELb1EEEEE18_M_deallocate_nodeEPSB_>:
    5e6c:	f3 0f 1e fa          	endbr64 
    5e70:	55                   	push   %rbp
    5e71:	48 89 e5             	mov    %rsp,%rbp
    5e74:	53                   	push   %rbx
    5e75:	48 83 ec 18          	sub    $0x18,%rsp
    5e79:	48 89 7d e8          	mov    %rdi,-0x18(%rbp)
    5e7d:	48 89 75 e0          	mov    %rsi,-0x20(%rbp)
    5e81:	48 8b 45 e0          	mov    -0x20(%rbp),%rax
    5e85:	48 83 c0 08          	add    $0x8,%rax
    5e89:	48 89 c7             	mov    %rax,%rdi
    5e8c:	e8 3f 0c 00 00       	call   6ad0 <_ZNSt8__detail21_Hash_node_value_baseISt4pairIKNSt7__cxx1112basic_stringIcSt11char_traitsIcESaIcEEES7_EE9_M_valptrEv>
    5e91:	48 89 c3             	mov    %rax,%rbx
    5e94:	48 8b 45 e8          	mov    -0x18(%rbp),%rax
    5e98:	48 89 c7             	mov    %rax,%rdi
    5e9b:	e8 12 0c 00 00       	call   6ab2 <_ZNSt8__detail16_Hashtable_allocISaINS_10_Hash_nodeISt4pairIKNSt7__cxx1112basic_stringIcSt11char_traitsIcESaIcEEES8_ELb1EEEEE17_M_node_allocatorEv>
    5ea0:	48 89 de             	mov    %rbx,%rsi
    5ea3:	48 89 c7             	mov    %rax,%rdi
    5ea6:	e8 43 0c 00 00       	call   6aee <_ZNSt16allocator_traitsISaINSt8__detail10_Hash_nodeISt4pairIKNSt7__cxx1112basic_stringIcSt11char_traitsIcESaIcEEES8_ELb1EEEEE7destroyISA_EEvRSC_PT_>
    5eab:	48 8b 55 e0          	mov    -0x20(%rbp),%rdx
    5eaf:	48 8b 45 e8          	mov    -0x18(%rbp),%rax
    5eb3:	48 89 d6             	mov    %rdx,%rsi
    5eb6:	48 89 c7             	mov    %rax,%rdi
    5eb9:	e8 5a 0c 00 00       	call   6b18 <_ZNSt8__detail16_Hashtable_allocISaINS_10_Hash_nodeISt4pairIKNSt7__cxx1112basic_stringIcSt11char_traitsIcESaIcEEES8_ELb1EEEEE22_M_deallocate_node_ptrEPSB_>
    5ebe:	90                   	nop
    5ebf:	48 8b 5d f8          	mov    -0x8(%rbp),%rbx
    5ec3:	c9                   	leave  
    5ec4:	c3                   	ret    
    5ec5:	90                   	nop

0000000000005ec6 <_ZNKSt10_HashtableINSt7__cxx1112basic_stringIcSt11char_traitsIcESaIcEEESt4pairIKS5_S5_ESaIS8_ENSt8__detail10_Select1stESt8equal_toIS5_ESt4hashIS5_ENSA_18_Mod_range_hashingENSA_20_Default_ranged_hashENSA_20_Prime_rehash_policyENSA_17_Hashtable_traitsILb1ELb0ELb1EEEE21_M_uses_single_bucketEPPNSA_15_Hash_node_baseE>:
    5ec6:	f3 0f 1e fa          	endbr64 
    5eca:	55                   	push   %rbp
    5ecb:	48 89 e5             	mov    %rsp,%rbp
    5ece:	48 89 7d f8          	mov    %rdi,-0x8(%rbp)
    5ed2:	48 89 75 f0          	mov    %rsi,-0x10(%rbp)
    5ed6:	48 8b 45 f8          	mov    -0x8(%rbp),%rax
    5eda:	48 83 c0 30          	add    $0x30,%rax
    5ede:	48 39 45 f0          	cmp    %rax,-0x10(%rbp)
    5ee2:	0f 94 c0             	sete   %al
    5ee5:	0f b6 c0             	movzbl %al,%eax
    5ee8:	48 85 c0             	test   %rax,%rax
    5eeb:	0f 95 c0             	setne  %al
    5eee:	5d                   	pop    %rbp
    5eef:	c3                   	ret    

0000000000005ef0 <_ZNSt8__detail16_Hashtable_allocISaINS_10_Hash_nodeISt4pairIKNSt7__cxx1112basic_stringIcSt11char_traitsIcESaIcEEES8_ELb1EEEEE21_M_deallocate_bucketsEPPNS_15_Hash_node_baseEm>:
    5ef0:	f3 0f 1e fa          	endbr64 
    5ef4:	55                   	push   %rbp
    5ef5:	48 89 e5             	mov    %rsp,%rbp
    5ef8:	53                   	push   %rbx
    5ef9:	48 83 ec 48          	sub    $0x48,%rsp
    5efd:	48 89 7d c8          	mov    %rdi,-0x38(%rbp)
    5f01:	48 89 75 c0          	mov    %rsi,-0x40(%rbp)
    5f05:	48 89 55 b8          	mov    %rdx,-0x48(%rbp)
    5f09:	64 48 8b 04 25 28 00 	mov    %fs:0x28,%rax
    5f10:	00 00 
    5f12:	48 89 45 e8          	mov    %rax,-0x18(%rbp)
    5f16:	31 c0                	xor    %eax,%eax
    5f18:	48 8b 45 c0          	mov    -0x40(%rbp),%rax
    5f1c:	48 89 c7             	mov    %rax,%rdi
    5f1f:	e8 3e 0c 00 00       	call   6b62 <_ZNSt19__ptr_traits_ptr_toIPPNSt8__detail15_Hash_node_baseES2_Lb0EE10pointer_toERS2_>
    5f24:	48 89 45 e0          	mov    %rax,-0x20(%rbp)
    5f28:	48 8b 45 c8          	mov    -0x38(%rbp),%rax
    5f2c:	48 89 c7             	mov    %rax,%rdi
    5f2f:	e8 7e 0b 00 00       	call   6ab2 <_ZNSt8__detail16_Hashtable_allocISaINS_10_Hash_nodeISt4pairIKNSt7__cxx1112basic_stringIcSt11char_traitsIcESaIcEEES8_ELb1EEEEE17_M_node_allocatorEv>
    5f34:	48 89 c2             	mov    %rax,%rdx
    5f37:	48 8d 45 df          	lea    -0x21(%rbp),%rax
    5f3b:	48 89 d6             	mov    %rdx,%rsi
    5f3e:	48 89 c7             	mov    %rax,%rdi
    5f41:	e8 3a 0c 00 00       	call   6b80 <_ZNSaIPNSt8__detail15_Hash_node_baseEEC1INS_10_Hash_nodeISt4pairIKNSt7__cxx1112basic_stringIcSt11char_traitsIcESaIcEEESB_ELb1EEEEERKSaIT_E>
    5f46:	48 8b 55 b8          	mov    -0x48(%rbp),%rdx
    5f4a:	48 8b 4d e0          	mov    -0x20(%rbp),%rcx
    5f4e:	48 8d 45 df          	lea    -0x21(%rbp),%rax
    5f52:	48 89 ce             	mov    %rcx,%rsi
    5f55:	48 89 c7             	mov    %rax,%rdi
    5f58:	e8 66 0c 00 00       	call   6bc3 <_ZNSt16allocator_traitsISaIPNSt8__detail15_Hash_node_baseEEE10deallocateERS3_PS2_m>
    5f5d:	48 8d 45 df          	lea    -0x21(%rbp),%rax
    5f61:	48 89 c7             	mov    %rax,%rdi
